

Microchip Technology PIC LITE Macro Assembler V1.36 build -262312587 
                                                                                               Thu Jun 23 11:30:08 2016

Microchip Technology Omniscient Code Generator v1.36 (Free mode) build 201601150325
     1                           	processor	16F1614
     2                           	opt	pw 120
     3                           	opt	lm
     4                           	psect	stringtext,global,class=STRCODE,delta=2
     5                           	psect	cinit,global,class=CODE,merge=1,delta=2
     6                           	psect	cstackCOMMON,global,class=COMMON,space=1,delta=1
     7                           	psect	maintext,global,class=CODE,merge=1,split=1,delta=2
     8                           	psect	text1,local,class=CODE,merge=1,delta=2
     9                           	psect	text2,local,class=CODE,merge=1,delta=2
    10                           	psect	text3,local,class=CODE,merge=1,delta=2
    11                           	psect	text4,local,class=CODE,merge=1,delta=2
    12                           	psect	text5,local,class=CODE,merge=1,delta=2
    13                           	psect	text6,local,class=CODE,merge=1,delta=2
    14                           	psect	text7,local,class=CODE,merge=1,delta=2
    15                           	psect	text8,local,class=CODE,merge=1,delta=2
    16                           	psect	text9,local,class=CODE,merge=1,delta=2
    17                           	psect	text10,local,class=CODE,merge=1,delta=2
    18                           	psect	text11,local,class=CODE,merge=1,delta=2
    19                           	psect	text12,local,class=CODE,merge=1,delta=2
    20                           	dabs	1,0x7E,2
    21  0000                     	;# 
    22  0001                     	;# 
    23  0002                     	;# 
    24  0003                     	;# 
    25  0004                     	;# 
    26  0005                     	;# 
    27  0006                     	;# 
    28  0007                     	;# 
    29  0008                     	;# 
    30  0009                     	;# 
    31  000A                     	;# 
    32  000B                     	;# 
    33  000C                     	;# 
    34  000E                     	;# 
    35  0010                     	;# 
    36  0011                     	;# 
    37  0012                     	;# 
    38  0013                     	;# 
    39  0014                     	;# 
    40  0015                     	;# 
    41  0016                     	;# 
    42  0016                     	;# 
    43  0017                     	;# 
    44  0018                     	;# 
    45  0019                     	;# 
    46  001A                     	;# 
    47  001A                     	;# 
    48  001B                     	;# 
    49  001B                     	;# 
    50  001C                     	;# 
    51  001D                     	;# 
    52  001E                     	;# 
    53  001F                     	;# 
    54  008C                     	;# 
    55  008E                     	;# 
    56  0090                     	;# 
    57  0091                     	;# 
    58  0092                     	;# 
    59  0093                     	;# 
    60  0094                     	;# 
    61  0095                     	;# 
    62  0096                     	;# 
    63  0098                     	;# 
    64  0099                     	;# 
    65  009A                     	;# 
    66  009B                     	;# 
    67  009B                     	;# 
    68  009C                     	;# 
    69  009D                     	;# 
    70  009E                     	;# 
    71  009F                     	;# 
    72  010C                     	;# 
    73  010E                     	;# 
    74  0111                     	;# 
    75  0112                     	;# 
    76  0113                     	;# 
    77  0114                     	;# 
    78  0115                     	;# 
    79  0116                     	;# 
    80  0117                     	;# 
    81  0118                     	;# 
    82  0119                     	;# 
    83  011C                     	;# 
    84  018C                     	;# 
    85  018E                     	;# 
    86  0191                     	;# 
    87  0191                     	;# 
    88  0192                     	;# 
    89  0193                     	;# 
    90  0193                     	;# 
    91  0194                     	;# 
    92  0195                     	;# 
    93  0196                     	;# 
    94  0197                     	;# 
    95  0199                     	;# 
    96  0199                     	;# 
    97  0199                     	;# 
    98  019A                     	;# 
    99  019A                     	;# 
   100  019A                     	;# 
   101  019B                     	;# 
   102  019B                     	;# 
   103  019B                     	;# 
   104  019B                     	;# 
   105  019B                     	;# 
   106  019C                     	;# 
   107  019C                     	;# 
   108  019C                     	;# 
   109  019D                     	;# 
   110  019D                     	;# 
   111  019D                     	;# 
   112  019E                     	;# 
   113  019E                     	;# 
   114  019E                     	;# 
   115  019F                     	;# 
   116  019F                     	;# 
   117  019F                     	;# 
   118  019F                     	;# 
   119  019F                     	;# 
   120  020C                     	;# 
   121  020E                     	;# 
   122  0211                     	;# 
   123  0211                     	;# 
   124  0212                     	;# 
   125  0212                     	;# 
   126  0213                     	;# 
   127  0213                     	;# 
   128  0214                     	;# 
   129  0214                     	;# 
   130  0215                     	;# 
   131  0215                     	;# 
   132  0215                     	;# 
   133  0215                     	;# 
   134  0216                     	;# 
   135  0216                     	;# 
   136  0217                     	;# 
   137  0217                     	;# 
   138  028C                     	;# 
   139  028E                     	;# 
   140  0291                     	;# 
   141  0291                     	;# 
   142  0292                     	;# 
   143  0293                     	;# 
   144  0294                     	;# 
   145  0298                     	;# 
   146  0298                     	;# 
   147  0299                     	;# 
   148  029A                     	;# 
   149  029B                     	;# 
   150  029E                     	;# 
   151  030C                     	;# 
   152  030E                     	;# 
   153  038C                     	;# 
   154  038E                     	;# 
   155  0391                     	;# 
   156  0392                     	;# 
   157  0393                     	;# 
   158  0397                     	;# 
   159  0398                     	;# 
   160  0399                     	;# 
   161  040E                     	;# 
   162  0413                     	;# 
   163  0413                     	;# 
   164  0414                     	;# 
   165  0414                     	;# 
   166  0415                     	;# 
   167  0416                     	;# 
   168  0417                     	;# 
   169  0418                     	;# 
   170  041A                     	;# 
   171  041A                     	;# 
   172  041B                     	;# 
   173  041B                     	;# 
   174  041C                     	;# 
   175  041D                     	;# 
   176  041E                     	;# 
   177  041F                     	;# 
   178  0493                     	;# 
   179  0494                     	;# 
   180  0495                     	;# 
   181  0496                     	;# 
   182  049A                     	;# 
   183  049B                     	;# 
   184  049C                     	;# 
   185  049D                     	;# 
   186  058C                     	;# 
   187  058C                     	;# 
   188  058D                     	;# 
   189  058E                     	;# 
   190  058E                     	;# 
   191  058F                     	;# 
   192  0590                     	;# 
   193  0590                     	;# 
   194  0591                     	;# 
   195  0592                     	;# 
   196  0592                     	;# 
   197  0593                     	;# 
   198  0594                     	;# 
   199  0594                     	;# 
   200  0595                     	;# 
   201  0596                     	;# 
   202  0596                     	;# 
   203  0597                     	;# 
   204  0598                     	;# 
   205  0599                     	;# 
   206  059A                     	;# 
   207  059B                     	;# 
   208  059B                     	;# 
   209  059C                     	;# 
   210  059D                     	;# 
   211  060C                     	;# 
   212  060C                     	;# 
   213  060D                     	;# 
   214  060E                     	;# 
   215  060F                     	;# 
   216  060F                     	;# 
   217  0610                     	;# 
   218  0611                     	;# 
   219  0612                     	;# 
   220  0613                     	;# 
   221  0614                     	;# 
   222  0617                     	;# 
   223  0618                     	;# 
   224  0619                     	;# 
   225  061A                     	;# 
   226  061B                     	;# 
   227  061C                     	;# 
   228  0691                     	;# 
   229  0692                     	;# 
   230  0693                     	;# 
   231  0694                     	;# 
   232  0695                     	;# 
   233  0696                     	;# 
   234  0697                     	;# 
   235  0699                     	;# 
   236  069A                     	;# 
   237  0711                     	;# 
   238  0712                     	;# 
   239  0713                     	;# 
   240  0714                     	;# 
   241  0715                     	;# 
   242  0718                     	;# 
   243  0718                     	;# 
   244  0719                     	;# 
   245  071A                     	;# 
   246  071A                     	;# 
   247  071B                     	;# 
   248  071C                     	;# 
   249  071D                     	;# 
   250  0791                     	;# 
   251  0791                     	;# 
   252  0792                     	;# 
   253  0793                     	;# 
   254  0793                     	;# 
   255  0794                     	;# 
   256  0795                     	;# 
   257  0795                     	;# 
   258  0796                     	;# 
   259  0797                     	;# 
   260  0797                     	;# 
   261  0798                     	;# 
   262  0799                     	;# 
   263  079A                     	;# 
   264  080C                     	;# 
   265  080C                     	;# 
   266  080D                     	;# 
   267  080E                     	;# 
   268  080E                     	;# 
   269  080F                     	;# 
   270  0810                     	;# 
   271  0810                     	;# 
   272  0811                     	;# 
   273  0812                     	;# 
   274  0812                     	;# 
   275  0813                     	;# 
   276  0814                     	;# 
   277  0815                     	;# 
   278  0816                     	;# 
   279  0817                     	;# 
   280  0818                     	;# 
   281  0819                     	;# 
   282  081A                     	;# 
   283  081A                     	;# 
   284  081B                     	;# 
   285  081C                     	;# 
   286  081C                     	;# 
   287  081D                     	;# 
   288  088C                     	;# 
   289  088D                     	;# 
   290  088E                     	;# 
   291  088F                     	;# 
   292  088F                     	;# 
   293  0890                     	;# 
   294  0891                     	;# 
   295  0892                     	;# 
   296  0893                     	;# 
   297  0893                     	;# 
   298  0894                     	;# 
   299  0895                     	;# 
   300  0896                     	;# 
   301  0897                     	;# 
   302  0897                     	;# 
   303  0898                     	;# 
   304  0899                     	;# 
   305  0D8C                     	;# 
   306  0D8C                     	;# 
   307  0D8D                     	;# 
   308  0D8E                     	;# 
   309  0D8F                     	;# 
   310  0D8F                     	;# 
   311  0D90                     	;# 
   312  0D91                     	;# 
   313  0D92                     	;# 
   314  0D92                     	;# 
   315  0D93                     	;# 
   316  0D94                     	;# 
   317  0D95                     	;# 
   318  0D95                     	;# 
   319  0D96                     	;# 
   320  0D97                     	;# 
   321  0D98                     	;# 
   322  0D99                     	;# 
   323  0D9A                     	;# 
   324  0D9B                     	;# 
   325  0D9C                     	;# 
   326  0D9D                     	;# 
   327  0D9E                     	;# 
   328  0D9E                     	;# 
   329  0D9F                     	;# 
   330  0DA0                     	;# 
   331  0DA1                     	;# 
   332  0DA1                     	;# 
   333  0DA2                     	;# 
   334  0DA3                     	;# 
   335  0DA4                     	;# 
   336  0DA4                     	;# 
   337  0DA5                     	;# 
   338  0DA6                     	;# 
   339  0DA7                     	;# 
   340  0DA7                     	;# 
   341  0DA8                     	;# 
   342  0DA9                     	;# 
   343  0DAA                     	;# 
   344  0DAB                     	;# 
   345  0DAC                     	;# 
   346  0DAD                     	;# 
   347  0DAE                     	;# 
   348  0DAF                     	;# 
   349  0E0F                     	;# 
   350  0E10                     	;# 
   351  0E11                     	;# 
   352  0E12                     	;# 
   353  0E13                     	;# 
   354  0E14                     	;# 
   355  0E15                     	;# 
   356  0E16                     	;# 
   357  0E17                     	;# 
   358  0E18                     	;# 
   359  0E19                     	;# 
   360  0E1A                     	;# 
   361  0E1B                     	;# 
   362  0E1C                     	;# 
   363  0E1D                     	;# 
   364  0E1E                     	;# 
   365  0E1F                     	;# 
   366  0E20                     	;# 
   367  0E21                     	;# 
   368  0E22                     	;# 
   369  0E23                     	;# 
   370  0E24                     	;# 
   371  0E25                     	;# 
   372  0E26                     	;# 
   373  0E27                     	;# 
   374  0E28                     	;# 
   375  0E29                     	;# 
   376  0E2A                     	;# 
   377  0E2B                     	;# 
   378  0E2C                     	;# 
   379  0E2D                     	;# 
   380  0E2E                     	;# 
   381  0E90                     	;# 
   382  0E91                     	;# 
   383  0E92                     	;# 
   384  0E94                     	;# 
   385  0E95                     	;# 
   386  0EA0                     	;# 
   387  0EA1                     	;# 
   388  0EA2                     	;# 
   389  0EA3                     	;# 
   390  0EA4                     	;# 
   391  0EA5                     	;# 
   392  0F0F                     	;# 
   393  0F10                     	;# 
   394  0F11                     	;# 
   395  0F12                     	;# 
   396  0F13                     	;# 
   397  0F14                     	;# 
   398  0F15                     	;# 
   399  0F16                     	;# 
   400  0F17                     	;# 
   401  0F18                     	;# 
   402  0F19                     	;# 
   403  0F1A                     	;# 
   404  0F1B                     	;# 
   405  0F1C                     	;# 
   406  0F1D                     	;# 
   407  0F1E                     	;# 
   408  0F1F                     	;# 
   409  0F20                     	;# 
   410  0F21                     	;# 
   411  0F22                     	;# 
   412  0F23                     	;# 
   413  0FE4                     	;# 
   414  0FE5                     	;# 
   415  0FE6                     	;# 
   416  0FE7                     	;# 
   417  0FE8                     	;# 
   418  0FE9                     	;# 
   419  0FEA                     	;# 
   420  0FEB                     	;# 
   421  0FED                     	;# 
   422  0FEE                     	;# 
   423  0FEF                     	;# 
   424  0000                     	;# 
   425  0001                     	;# 
   426  0002                     	;# 
   427  0003                     	;# 
   428  0004                     	;# 
   429  0005                     	;# 
   430  0006                     	;# 
   431  0007                     	;# 
   432  0008                     	;# 
   433  0009                     	;# 
   434  000A                     	;# 
   435  000B                     	;# 
   436  000C                     	;# 
   437  000E                     	;# 
   438  0010                     	;# 
   439  0011                     	;# 
   440  0012                     	;# 
   441  0013                     	;# 
   442  0014                     	;# 
   443  0015                     	;# 
   444  0016                     	;# 
   445  0016                     	;# 
   446  0017                     	;# 
   447  0018                     	;# 
   448  0019                     	;# 
   449  001A                     	;# 
   450  001A                     	;# 
   451  001B                     	;# 
   452  001B                     	;# 
   453  001C                     	;# 
   454  001D                     	;# 
   455  001E                     	;# 
   456  001F                     	;# 
   457  008C                     	;# 
   458  008E                     	;# 
   459  0090                     	;# 
   460  0091                     	;# 
   461  0092                     	;# 
   462  0093                     	;# 
   463  0094                     	;# 
   464  0095                     	;# 
   465  0096                     	;# 
   466  0098                     	;# 
   467  0099                     	;# 
   468  009A                     	;# 
   469  009B                     	;# 
   470  009B                     	;# 
   471  009C                     	;# 
   472  009D                     	;# 
   473  009E                     	;# 
   474  009F                     	;# 
   475  010C                     	;# 
   476  010E                     	;# 
   477  0111                     	;# 
   478  0112                     	;# 
   479  0113                     	;# 
   480  0114                     	;# 
   481  0115                     	;# 
   482  0116                     	;# 
   483  0117                     	;# 
   484  0118                     	;# 
   485  0119                     	;# 
   486  011C                     	;# 
   487  018C                     	;# 
   488  018E                     	;# 
   489  0191                     	;# 
   490  0191                     	;# 
   491  0192                     	;# 
   492  0193                     	;# 
   493  0193                     	;# 
   494  0194                     	;# 
   495  0195                     	;# 
   496  0196                     	;# 
   497  0197                     	;# 
   498  0199                     	;# 
   499  0199                     	;# 
   500  0199                     	;# 
   501  019A                     	;# 
   502  019A                     	;# 
   503  019A                     	;# 
   504  019B                     	;# 
   505  019B                     	;# 
   506  019B                     	;# 
   507  019B                     	;# 
   508  019B                     	;# 
   509  019C                     	;# 
   510  019C                     	;# 
   511  019C                     	;# 
   512  019D                     	;# 
   513  019D                     	;# 
   514  019D                     	;# 
   515  019E                     	;# 
   516  019E                     	;# 
   517  019E                     	;# 
   518  019F                     	;# 
   519  019F                     	;# 
   520  019F                     	;# 
   521  019F                     	;# 
   522  019F                     	;# 
   523  020C                     	;# 
   524  020E                     	;# 
   525  0211                     	;# 
   526  0211                     	;# 
   527  0212                     	;# 
   528  0212                     	;# 
   529  0213                     	;# 
   530  0213                     	;# 
   531  0214                     	;# 
   532  0214                     	;# 
   533  0215                     	;# 
   534  0215                     	;# 
   535  0215                     	;# 
   536  0215                     	;# 
   537  0216                     	;# 
   538  0216                     	;# 
   539  0217                     	;# 
   540  0217                     	;# 
   541  028C                     	;# 
   542  028E                     	;# 
   543  0291                     	;# 
   544  0291                     	;# 
   545  0292                     	;# 
   546  0293                     	;# 
   547  0294                     	;# 
   548  0298                     	;# 
   549  0298                     	;# 
   550  0299                     	;# 
   551  029A                     	;# 
   552  029B                     	;# 
   553  029E                     	;# 
   554  030C                     	;# 
   555  030E                     	;# 
   556  038C                     	;# 
   557  038E                     	;# 
   558  0391                     	;# 
   559  0392                     	;# 
   560  0393                     	;# 
   561  0397                     	;# 
   562  0398                     	;# 
   563  0399                     	;# 
   564  040E                     	;# 
   565  0413                     	;# 
   566  0413                     	;# 
   567  0414                     	;# 
   568  0414                     	;# 
   569  0415                     	;# 
   570  0416                     	;# 
   571  0417                     	;# 
   572  0418                     	;# 
   573  041A                     	;# 
   574  041A                     	;# 
   575  041B                     	;# 
   576  041B                     	;# 
   577  041C                     	;# 
   578  041D                     	;# 
   579  041E                     	;# 
   580  041F                     	;# 
   581  0493                     	;# 
   582  0494                     	;# 
   583  0495                     	;# 
   584  0496                     	;# 
   585  049A                     	;# 
   586  049B                     	;# 
   587  049C                     	;# 
   588  049D                     	;# 
   589  058C                     	;# 
   590  058C                     	;# 
   591  058D                     	;# 
   592  058E                     	;# 
   593  058E                     	;# 
   594  058F                     	;# 
   595  0590                     	;# 
   596  0590                     	;# 
   597  0591                     	;# 
   598  0592                     	;# 
   599  0592                     	;# 
   600  0593                     	;# 
   601  0594                     	;# 
   602  0594                     	;# 
   603  0595                     	;# 
   604  0596                     	;# 
   605  0596                     	;# 
   606  0597                     	;# 
   607  0598                     	;# 
   608  0599                     	;# 
   609  059A                     	;# 
   610  059B                     	;# 
   611  059B                     	;# 
   612  059C                     	;# 
   613  059D                     	;# 
   614  060C                     	;# 
   615  060C                     	;# 
   616  060D                     	;# 
   617  060E                     	;# 
   618  060F                     	;# 
   619  060F                     	;# 
   620  0610                     	;# 
   621  0611                     	;# 
   622  0612                     	;# 
   623  0613                     	;# 
   624  0614                     	;# 
   625  0617                     	;# 
   626  0618                     	;# 
   627  0619                     	;# 
   628  061A                     	;# 
   629  061B                     	;# 
   630  061C                     	;# 
   631  0691                     	;# 
   632  0692                     	;# 
   633  0693                     	;# 
   634  0694                     	;# 
   635  0695                     	;# 
   636  0696                     	;# 
   637  0697                     	;# 
   638  0699                     	;# 
   639  069A                     	;# 
   640  0711                     	;# 
   641  0712                     	;# 
   642  0713                     	;# 
   643  0714                     	;# 
   644  0715                     	;# 
   645  0718                     	;# 
   646  0718                     	;# 
   647  0719                     	;# 
   648  071A                     	;# 
   649  071A                     	;# 
   650  071B                     	;# 
   651  071C                     	;# 
   652  071D                     	;# 
   653  0791                     	;# 
   654  0791                     	;# 
   655  0792                     	;# 
   656  0793                     	;# 
   657  0793                     	;# 
   658  0794                     	;# 
   659  0795                     	;# 
   660  0795                     	;# 
   661  0796                     	;# 
   662  0797                     	;# 
   663  0797                     	;# 
   664  0798                     	;# 
   665  0799                     	;# 
   666  079A                     	;# 
   667  080C                     	;# 
   668  080C                     	;# 
   669  080D                     	;# 
   670  080E                     	;# 
   671  080E                     	;# 
   672  080F                     	;# 
   673  0810                     	;# 
   674  0810                     	;# 
   675  0811                     	;# 
   676  0812                     	;# 
   677  0812                     	;# 
   678  0813                     	;# 
   679  0814                     	;# 
   680  0815                     	;# 
   681  0816                     	;# 
   682  0817                     	;# 
   683  0818                     	;# 
   684  0819                     	;# 
   685  081A                     	;# 
   686  081A                     	;# 
   687  081B                     	;# 
   688  081C                     	;# 
   689  081C                     	;# 
   690  081D                     	;# 
   691  088C                     	;# 
   692  088D                     	;# 
   693  088E                     	;# 
   694  088F                     	;# 
   695  088F                     	;# 
   696  0890                     	;# 
   697  0891                     	;# 
   698  0892                     	;# 
   699  0893                     	;# 
   700  0893                     	;# 
   701  0894                     	;# 
   702  0895                     	;# 
   703  0896                     	;# 
   704  0897                     	;# 
   705  0897                     	;# 
   706  0898                     	;# 
   707  0899                     	;# 
   708  0D8C                     	;# 
   709  0D8C                     	;# 
   710  0D8D                     	;# 
   711  0D8E                     	;# 
   712  0D8F                     	;# 
   713  0D8F                     	;# 
   714  0D90                     	;# 
   715  0D91                     	;# 
   716  0D92                     	;# 
   717  0D92                     	;# 
   718  0D93                     	;# 
   719  0D94                     	;# 
   720  0D95                     	;# 
   721  0D95                     	;# 
   722  0D96                     	;# 
   723  0D97                     	;# 
   724  0D98                     	;# 
   725  0D99                     	;# 
   726  0D9A                     	;# 
   727  0D9B                     	;# 
   728  0D9C                     	;# 
   729  0D9D                     	;# 
   730  0D9E                     	;# 
   731  0D9E                     	;# 
   732  0D9F                     	;# 
   733  0DA0                     	;# 
   734  0DA1                     	;# 
   735  0DA1                     	;# 
   736  0DA2                     	;# 
   737  0DA3                     	;# 
   738  0DA4                     	;# 
   739  0DA4                     	;# 
   740  0DA5                     	;# 
   741  0DA6                     	;# 
   742  0DA7                     	;# 
   743  0DA7                     	;# 
   744  0DA8                     	;# 
   745  0DA9                     	;# 
   746  0DAA                     	;# 
   747  0DAB                     	;# 
   748  0DAC                     	;# 
   749  0DAD                     	;# 
   750  0DAE                     	;# 
   751  0DAF                     	;# 
   752  0E0F                     	;# 
   753  0E10                     	;# 
   754  0E11                     	;# 
   755  0E12                     	;# 
   756  0E13                     	;# 
   757  0E14                     	;# 
   758  0E15                     	;# 
   759  0E16                     	;# 
   760  0E17                     	;# 
   761  0E18                     	;# 
   762  0E19                     	;# 
   763  0E1A                     	;# 
   764  0E1B                     	;# 
   765  0E1C                     	;# 
   766  0E1D                     	;# 
   767  0E1E                     	;# 
   768  0E1F                     	;# 
   769  0E20                     	;# 
   770  0E21                     	;# 
   771  0E22                     	;# 
   772  0E23                     	;# 
   773  0E24                     	;# 
   774  0E25                     	;# 
   775  0E26                     	;# 
   776  0E27                     	;# 
   777  0E28                     	;# 
   778  0E29                     	;# 
   779  0E2A                     	;# 
   780  0E2B                     	;# 
   781  0E2C                     	;# 
   782  0E2D                     	;# 
   783  0E2E                     	;# 
   784  0E90                     	;# 
   785  0E91                     	;# 
   786  0E92                     	;# 
   787  0E94                     	;# 
   788  0E95                     	;# 
   789  0EA0                     	;# 
   790  0EA1                     	;# 
   791  0EA2                     	;# 
   792  0EA3                     	;# 
   793  0EA4                     	;# 
   794  0EA5                     	;# 
   795  0F0F                     	;# 
   796  0F10                     	;# 
   797  0F11                     	;# 
   798  0F12                     	;# 
   799  0F13                     	;# 
   800  0F14                     	;# 
   801  0F15                     	;# 
   802  0F16                     	;# 
   803  0F17                     	;# 
   804  0F18                     	;# 
   805  0F19                     	;# 
   806  0F1A                     	;# 
   807  0F1B                     	;# 
   808  0F1C                     	;# 
   809  0F1D                     	;# 
   810  0F1E                     	;# 
   811  0F1F                     	;# 
   812  0F20                     	;# 
   813  0F21                     	;# 
   814  0F22                     	;# 
   815  0F23                     	;# 
   816  0FE4                     	;# 
   817  0FE5                     	;# 
   818  0FE6                     	;# 
   819  0FE7                     	;# 
   820  0FE8                     	;# 
   821  0FE9                     	;# 
   822  0FEA                     	;# 
   823  0FEB                     	;# 
   824  0FED                     	;# 
   825  0FEE                     	;# 
   826  0FEF                     	;# 
   827  0000                     	;# 
   828  0001                     	;# 
   829  0002                     	;# 
   830  0003                     	;# 
   831  0004                     	;# 
   832  0005                     	;# 
   833  0006                     	;# 
   834  0007                     	;# 
   835  0008                     	;# 
   836  0009                     	;# 
   837  000A                     	;# 
   838  000B                     	;# 
   839  000C                     	;# 
   840  000E                     	;# 
   841  0010                     	;# 
   842  0011                     	;# 
   843  0012                     	;# 
   844  0013                     	;# 
   845  0014                     	;# 
   846  0015                     	;# 
   847  0016                     	;# 
   848  0016                     	;# 
   849  0017                     	;# 
   850  0018                     	;# 
   851  0019                     	;# 
   852  001A                     	;# 
   853  001A                     	;# 
   854  001B                     	;# 
   855  001B                     	;# 
   856  001C                     	;# 
   857  001D                     	;# 
   858  001E                     	;# 
   859  001F                     	;# 
   860  008C                     	;# 
   861  008E                     	;# 
   862  0090                     	;# 
   863  0091                     	;# 
   864  0092                     	;# 
   865  0093                     	;# 
   866  0094                     	;# 
   867  0095                     	;# 
   868  0096                     	;# 
   869  0098                     	;# 
   870  0099                     	;# 
   871  009A                     	;# 
   872  009B                     	;# 
   873  009B                     	;# 
   874  009C                     	;# 
   875  009D                     	;# 
   876  009E                     	;# 
   877  009F                     	;# 
   878  010C                     	;# 
   879  010E                     	;# 
   880  0111                     	;# 
   881  0112                     	;# 
   882  0113                     	;# 
   883  0114                     	;# 
   884  0115                     	;# 
   885  0116                     	;# 
   886  0117                     	;# 
   887  0118                     	;# 
   888  0119                     	;# 
   889  011C                     	;# 
   890  018C                     	;# 
   891  018E                     	;# 
   892  0191                     	;# 
   893  0191                     	;# 
   894  0192                     	;# 
   895  0193                     	;# 
   896  0193                     	;# 
   897  0194                     	;# 
   898  0195                     	;# 
   899  0196                     	;# 
   900  0197                     	;# 
   901  0199                     	;# 
   902  0199                     	;# 
   903  0199                     	;# 
   904  019A                     	;# 
   905  019A                     	;# 
   906  019A                     	;# 
   907  019B                     	;# 
   908  019B                     	;# 
   909  019B                     	;# 
   910  019B                     	;# 
   911  019B                     	;# 
   912  019C                     	;# 
   913  019C                     	;# 
   914  019C                     	;# 
   915  019D                     	;# 
   916  019D                     	;# 
   917  019D                     	;# 
   918  019E                     	;# 
   919  019E                     	;# 
   920  019E                     	;# 
   921  019F                     	;# 
   922  019F                     	;# 
   923  019F                     	;# 
   924  019F                     	;# 
   925  019F                     	;# 
   926  020C                     	;# 
   927  020E                     	;# 
   928  0211                     	;# 
   929  0211                     	;# 
   930  0212                     	;# 
   931  0212                     	;# 
   932  0213                     	;# 
   933  0213                     	;# 
   934  0214                     	;# 
   935  0214                     	;# 
   936  0215                     	;# 
   937  0215                     	;# 
   938  0215                     	;# 
   939  0215                     	;# 
   940  0216                     	;# 
   941  0216                     	;# 
   942  0217                     	;# 
   943  0217                     	;# 
   944  028C                     	;# 
   945  028E                     	;# 
   946  0291                     	;# 
   947  0291                     	;# 
   948  0292                     	;# 
   949  0293                     	;# 
   950  0294                     	;# 
   951  0298                     	;# 
   952  0298                     	;# 
   953  0299                     	;# 
   954  029A                     	;# 
   955  029B                     	;# 
   956  029E                     	;# 
   957  030C                     	;# 
   958  030E                     	;# 
   959  038C                     	;# 
   960  038E                     	;# 
   961  0391                     	;# 
   962  0392                     	;# 
   963  0393                     	;# 
   964  0397                     	;# 
   965  0398                     	;# 
   966  0399                     	;# 
   967  040E                     	;# 
   968  0413                     	;# 
   969  0413                     	;# 
   970  0414                     	;# 
   971  0414                     	;# 
   972  0415                     	;# 
   973  0416                     	;# 
   974  0417                     	;# 
   975  0418                     	;# 
   976  041A                     	;# 
   977  041A                     	;# 
   978  041B                     	;# 
   979  041B                     	;# 
   980  041C                     	;# 
   981  041D                     	;# 
   982  041E                     	;# 
   983  041F                     	;# 
   984  0493                     	;# 
   985  0494                     	;# 
   986  0495                     	;# 
   987  0496                     	;# 
   988  049A                     	;# 
   989  049B                     	;# 
   990  049C                     	;# 
   991  049D                     	;# 
   992  058C                     	;# 
   993  058C                     	;# 
   994  058D                     	;# 
   995  058E                     	;# 
   996  058E                     	;# 
   997  058F                     	;# 
   998  0590                     	;# 
   999  0590                     	;# 
  1000  0591                     	;# 
  1001  0592                     	;# 
  1002  0592                     	;# 
  1003  0593                     	;# 
  1004  0594                     	;# 
  1005  0594                     	;# 
  1006  0595                     	;# 
  1007  0596                     	;# 
  1008  0596                     	;# 
  1009  0597                     	;# 
  1010  0598                     	;# 
  1011  0599                     	;# 
  1012  059A                     	;# 
  1013  059B                     	;# 
  1014  059B                     	;# 
  1015  059C                     	;# 
  1016  059D                     	;# 
  1017  060C                     	;# 
  1018  060C                     	;# 
  1019  060D                     	;# 
  1020  060E                     	;# 
  1021  060F                     	;# 
  1022  060F                     	;# 
  1023  0610                     	;# 
  1024  0611                     	;# 
  1025  0612                     	;# 
  1026  0613                     	;# 
  1027  0614                     	;# 
  1028  0617                     	;# 
  1029  0618                     	;# 
  1030  0619                     	;# 
  1031  061A                     	;# 
  1032  061B                     	;# 
  1033  061C                     	;# 
  1034  0691                     	;# 
  1035  0692                     	;# 
  1036  0693                     	;# 
  1037  0694                     	;# 
  1038  0695                     	;# 
  1039  0696                     	;# 
  1040  0697                     	;# 
  1041  0699                     	;# 
  1042  069A                     	;# 
  1043  0711                     	;# 
  1044  0712                     	;# 
  1045  0713                     	;# 
  1046  0714                     	;# 
  1047  0715                     	;# 
  1048  0718                     	;# 
  1049  0718                     	;# 
  1050  0719                     	;# 
  1051  071A                     	;# 
  1052  071A                     	;# 
  1053  071B                     	;# 
  1054  071C                     	;# 
  1055  071D                     	;# 
  1056  0791                     	;# 
  1057  0791                     	;# 
  1058  0792                     	;# 
  1059  0793                     	;# 
  1060  0793                     	;# 
  1061  0794                     	;# 
  1062  0795                     	;# 
  1063  0795                     	;# 
  1064  0796                     	;# 
  1065  0797                     	;# 
  1066  0797                     	;# 
  1067  0798                     	;# 
  1068  0799                     	;# 
  1069  079A                     	;# 
  1070  080C                     	;# 
  1071  080C                     	;# 
  1072  080D                     	;# 
  1073  080E                     	;# 
  1074  080E                     	;# 
  1075  080F                     	;# 
  1076  0810                     	;# 
  1077  0810                     	;# 
  1078  0811                     	;# 
  1079  0812                     	;# 
  1080  0812                     	;# 
  1081  0813                     	;# 
  1082  0814                     	;# 
  1083  0815                     	;# 
  1084  0816                     	;# 
  1085  0817                     	;# 
  1086  0818                     	;# 
  1087  0819                     	;# 
  1088  081A                     	;# 
  1089  081A                     	;# 
  1090  081B                     	;# 
  1091  081C                     	;# 
  1092  081C                     	;# 
  1093  081D                     	;# 
  1094  088C                     	;# 
  1095  088D                     	;# 
  1096  088E                     	;# 
  1097  088F                     	;# 
  1098  088F                     	;# 
  1099  0890                     	;# 
  1100  0891                     	;# 
  1101  0892                     	;# 
  1102  0893                     	;# 
  1103  0893                     	;# 
  1104  0894                     	;# 
  1105  0895                     	;# 
  1106  0896                     	;# 
  1107  0897                     	;# 
  1108  0897                     	;# 
  1109  0898                     	;# 
  1110  0899                     	;# 
  1111  0D8C                     	;# 
  1112  0D8C                     	;# 
  1113  0D8D                     	;# 
  1114  0D8E                     	;# 
  1115  0D8F                     	;# 
  1116  0D8F                     	;# 
  1117  0D90                     	;# 
  1118  0D91                     	;# 
  1119  0D92                     	;# 
  1120  0D92                     	;# 
  1121  0D93                     	;# 
  1122  0D94                     	;# 
  1123  0D95                     	;# 
  1124  0D95                     	;# 
  1125  0D96                     	;# 
  1126  0D97                     	;# 
  1127  0D98                     	;# 
  1128  0D99                     	;# 
  1129  0D9A                     	;# 
  1130  0D9B                     	;# 
  1131  0D9C                     	;# 
  1132  0D9D                     	;# 
  1133  0D9E                     	;# 
  1134  0D9E                     	;# 
  1135  0D9F                     	;# 
  1136  0DA0                     	;# 
  1137  0DA1                     	;# 
  1138  0DA1                     	;# 
  1139  0DA2                     	;# 
  1140  0DA3                     	;# 
  1141  0DA4                     	;# 
  1142  0DA4                     	;# 
  1143  0DA5                     	;# 
  1144  0DA6                     	;# 
  1145  0DA7                     	;# 
  1146  0DA7                     	;# 
  1147  0DA8                     	;# 
  1148  0DA9                     	;# 
  1149  0DAA                     	;# 
  1150  0DAB                     	;# 
  1151  0DAC                     	;# 
  1152  0DAD                     	;# 
  1153  0DAE                     	;# 
  1154  0DAF                     	;# 
  1155  0E0F                     	;# 
  1156  0E10                     	;# 
  1157  0E11                     	;# 
  1158  0E12                     	;# 
  1159  0E13                     	;# 
  1160  0E14                     	;# 
  1161  0E15                     	;# 
  1162  0E16                     	;# 
  1163  0E17                     	;# 
  1164  0E18                     	;# 
  1165  0E19                     	;# 
  1166  0E1A                     	;# 
  1167  0E1B                     	;# 
  1168  0E1C                     	;# 
  1169  0E1D                     	;# 
  1170  0E1E                     	;# 
  1171  0E1F                     	;# 
  1172  0E20                     	;# 
  1173  0E21                     	;# 
  1174  0E22                     	;# 
  1175  0E23                     	;# 
  1176  0E24                     	;# 
  1177  0E25                     	;# 
  1178  0E26                     	;# 
  1179  0E27                     	;# 
  1180  0E28                     	;# 
  1181  0E29                     	;# 
  1182  0E2A                     	;# 
  1183  0E2B                     	;# 
  1184  0E2C                     	;# 
  1185  0E2D                     	;# 
  1186  0E2E                     	;# 
  1187  0E90                     	;# 
  1188  0E91                     	;# 
  1189  0E92                     	;# 
  1190  0E94                     	;# 
  1191  0E95                     	;# 
  1192  0EA0                     	;# 
  1193  0EA1                     	;# 
  1194  0EA2                     	;# 
  1195  0EA3                     	;# 
  1196  0EA4                     	;# 
  1197  0EA5                     	;# 
  1198  0F0F                     	;# 
  1199  0F10                     	;# 
  1200  0F11                     	;# 
  1201  0F12                     	;# 
  1202  0F13                     	;# 
  1203  0F14                     	;# 
  1204  0F15                     	;# 
  1205  0F16                     	;# 
  1206  0F17                     	;# 
  1207  0F18                     	;# 
  1208  0F19                     	;# 
  1209  0F1A                     	;# 
  1210  0F1B                     	;# 
  1211  0F1C                     	;# 
  1212  0F1D                     	;# 
  1213  0F1E                     	;# 
  1214  0F1F                     	;# 
  1215  0F20                     	;# 
  1216  0F21                     	;# 
  1217  0F22                     	;# 
  1218  0F23                     	;# 
  1219  0FE4                     	;# 
  1220  0FE5                     	;# 
  1221  0FE6                     	;# 
  1222  0FE7                     	;# 
  1223  0FE8                     	;# 
  1224  0FE9                     	;# 
  1225  0FEA                     	;# 
  1226  0FEB                     	;# 
  1227  0FED                     	;# 
  1228  0FEE                     	;# 
  1229  0FEF                     	;# 
  1230  0000                     	;# 
  1231  0001                     	;# 
  1232  0002                     	;# 
  1233  0003                     	;# 
  1234  0004                     	;# 
  1235  0005                     	;# 
  1236  0006                     	;# 
  1237  0007                     	;# 
  1238  0008                     	;# 
  1239  0009                     	;# 
  1240  000A                     	;# 
  1241  000B                     	;# 
  1242  000C                     	;# 
  1243  000E                     	;# 
  1244  0010                     	;# 
  1245  0011                     	;# 
  1246  0012                     	;# 
  1247  0013                     	;# 
  1248  0014                     	;# 
  1249  0015                     	;# 
  1250  0016                     	;# 
  1251  0016                     	;# 
  1252  0017                     	;# 
  1253  0018                     	;# 
  1254  0019                     	;# 
  1255  001A                     	;# 
  1256  001A                     	;# 
  1257  001B                     	;# 
  1258  001B                     	;# 
  1259  001C                     	;# 
  1260  001D                     	;# 
  1261  001E                     	;# 
  1262  001F                     	;# 
  1263  008C                     	;# 
  1264  008E                     	;# 
  1265  0090                     	;# 
  1266  0091                     	;# 
  1267  0092                     	;# 
  1268  0093                     	;# 
  1269  0094                     	;# 
  1270  0095                     	;# 
  1271  0096                     	;# 
  1272  0098                     	;# 
  1273  0099                     	;# 
  1274  009A                     	;# 
  1275  009B                     	;# 
  1276  009B                     	;# 
  1277  009C                     	;# 
  1278  009D                     	;# 
  1279  009E                     	;# 
  1280  009F                     	;# 
  1281  010C                     	;# 
  1282  010E                     	;# 
  1283  0111                     	;# 
  1284  0112                     	;# 
  1285  0113                     	;# 
  1286  0114                     	;# 
  1287  0115                     	;# 
  1288  0116                     	;# 
  1289  0117                     	;# 
  1290  0118                     	;# 
  1291  0119                     	;# 
  1292  011C                     	;# 
  1293  018C                     	;# 
  1294  018E                     	;# 
  1295  0191                     	;# 
  1296  0191                     	;# 
  1297  0192                     	;# 
  1298  0193                     	;# 
  1299  0193                     	;# 
  1300  0194                     	;# 
  1301  0195                     	;# 
  1302  0196                     	;# 
  1303  0197                     	;# 
  1304  0199                     	;# 
  1305  0199                     	;# 
  1306  0199                     	;# 
  1307  019A                     	;# 
  1308  019A                     	;# 
  1309  019A                     	;# 
  1310  019B                     	;# 
  1311  019B                     	;# 
  1312  019B                     	;# 
  1313  019B                     	;# 
  1314  019B                     	;# 
  1315  019C                     	;# 
  1316  019C                     	;# 
  1317  019C                     	;# 
  1318  019D                     	;# 
  1319  019D                     	;# 
  1320  019D                     	;# 
  1321  019E                     	;# 
  1322  019E                     	;# 
  1323  019E                     	;# 
  1324  019F                     	;# 
  1325  019F                     	;# 
  1326  019F                     	;# 
  1327  019F                     	;# 
  1328  019F                     	;# 
  1329  020C                     	;# 
  1330  020E                     	;# 
  1331  0211                     	;# 
  1332  0211                     	;# 
  1333  0212                     	;# 
  1334  0212                     	;# 
  1335  0213                     	;# 
  1336  0213                     	;# 
  1337  0214                     	;# 
  1338  0214                     	;# 
  1339  0215                     	;# 
  1340  0215                     	;# 
  1341  0215                     	;# 
  1342  0215                     	;# 
  1343  0216                     	;# 
  1344  0216                     	;# 
  1345  0217                     	;# 
  1346  0217                     	;# 
  1347  028C                     	;# 
  1348  028E                     	;# 
  1349  0291                     	;# 
  1350  0291                     	;# 
  1351  0292                     	;# 
  1352  0293                     	;# 
  1353  0294                     	;# 
  1354  0298                     	;# 
  1355  0298                     	;# 
  1356  0299                     	;# 
  1357  029A                     	;# 
  1358  029B                     	;# 
  1359  029E                     	;# 
  1360  030C                     	;# 
  1361  030E                     	;# 
  1362  038C                     	;# 
  1363  038E                     	;# 
  1364  0391                     	;# 
  1365  0392                     	;# 
  1366  0393                     	;# 
  1367  0397                     	;# 
  1368  0398                     	;# 
  1369  0399                     	;# 
  1370  040E                     	;# 
  1371  0413                     	;# 
  1372  0413                     	;# 
  1373  0414                     	;# 
  1374  0414                     	;# 
  1375  0415                     	;# 
  1376  0416                     	;# 
  1377  0417                     	;# 
  1378  0418                     	;# 
  1379  041A                     	;# 
  1380  041A                     	;# 
  1381  041B                     	;# 
  1382  041B                     	;# 
  1383  041C                     	;# 
  1384  041D                     	;# 
  1385  041E                     	;# 
  1386  041F                     	;# 
  1387  0493                     	;# 
  1388  0494                     	;# 
  1389  0495                     	;# 
  1390  0496                     	;# 
  1391  049A                     	;# 
  1392  049B                     	;# 
  1393  049C                     	;# 
  1394  049D                     	;# 
  1395  058C                     	;# 
  1396  058C                     	;# 
  1397  058D                     	;# 
  1398  058E                     	;# 
  1399  058E                     	;# 
  1400  058F                     	;# 
  1401  0590                     	;# 
  1402  0590                     	;# 
  1403  0591                     	;# 
  1404  0592                     	;# 
  1405  0592                     	;# 
  1406  0593                     	;# 
  1407  0594                     	;# 
  1408  0594                     	;# 
  1409  0595                     	;# 
  1410  0596                     	;# 
  1411  0596                     	;# 
  1412  0597                     	;# 
  1413  0598                     	;# 
  1414  0599                     	;# 
  1415  059A                     	;# 
  1416  059B                     	;# 
  1417  059B                     	;# 
  1418  059C                     	;# 
  1419  059D                     	;# 
  1420  060C                     	;# 
  1421  060C                     	;# 
  1422  060D                     	;# 
  1423  060E                     	;# 
  1424  060F                     	;# 
  1425  060F                     	;# 
  1426  0610                     	;# 
  1427  0611                     	;# 
  1428  0612                     	;# 
  1429  0613                     	;# 
  1430  0614                     	;# 
  1431  0617                     	;# 
  1432  0618                     	;# 
  1433  0619                     	;# 
  1434  061A                     	;# 
  1435  061B                     	;# 
  1436  061C                     	;# 
  1437  0691                     	;# 
  1438  0692                     	;# 
  1439  0693                     	;# 
  1440  0694                     	;# 
  1441  0695                     	;# 
  1442  0696                     	;# 
  1443  0697                     	;# 
  1444  0699                     	;# 
  1445  069A                     	;# 
  1446  0711                     	;# 
  1447  0712                     	;# 
  1448  0713                     	;# 
  1449  0714                     	;# 
  1450  0715                     	;# 
  1451  0718                     	;# 
  1452  0718                     	;# 
  1453  0719                     	;# 
  1454  071A                     	;# 
  1455  071A                     	;# 
  1456  071B                     	;# 
  1457  071C                     	;# 
  1458  071D                     	;# 
  1459  0791                     	;# 
  1460  0791                     	;# 
  1461  0792                     	;# 
  1462  0793                     	;# 
  1463  0793                     	;# 
  1464  0794                     	;# 
  1465  0795                     	;# 
  1466  0795                     	;# 
  1467  0796                     	;# 
  1468  0797                     	;# 
  1469  0797                     	;# 
  1470  0798                     	;# 
  1471  0799                     	;# 
  1472  079A                     	;# 
  1473  080C                     	;# 
  1474  080C                     	;# 
  1475  080D                     	;# 
  1476  080E                     	;# 
  1477  080E                     	;# 
  1478  080F                     	;# 
  1479  0810                     	;# 
  1480  0810                     	;# 
  1481  0811                     	;# 
  1482  0812                     	;# 
  1483  0812                     	;# 
  1484  0813                     	;# 
  1485  0814                     	;# 
  1486  0815                     	;# 
  1487  0816                     	;# 
  1488  0817                     	;# 
  1489  0818                     	;# 
  1490  0819                     	;# 
  1491  081A                     	;# 
  1492  081A                     	;# 
  1493  081B                     	;# 
  1494  081C                     	;# 
  1495  081C                     	;# 
  1496  081D                     	;# 
  1497  088C                     	;# 
  1498  088D                     	;# 
  1499  088E                     	;# 
  1500  088F                     	;# 
  1501  088F                     	;# 
  1502  0890                     	;# 
  1503  0891                     	;# 
  1504  0892                     	;# 
  1505  0893                     	;# 
  1506  0893                     	;# 
  1507  0894                     	;# 
  1508  0895                     	;# 
  1509  0896                     	;# 
  1510  0897                     	;# 
  1511  0897                     	;# 
  1512  0898                     	;# 
  1513  0899                     	;# 
  1514  0D8C                     	;# 
  1515  0D8C                     	;# 
  1516  0D8D                     	;# 
  1517  0D8E                     	;# 
  1518  0D8F                     	;# 
  1519  0D8F                     	;# 
  1520  0D90                     	;# 
  1521  0D91                     	;# 
  1522  0D92                     	;# 
  1523  0D92                     	;# 
  1524  0D93                     	;# 
  1525  0D94                     	;# 
  1526  0D95                     	;# 
  1527  0D95                     	;# 
  1528  0D96                     	;# 
  1529  0D97                     	;# 
  1530  0D98                     	;# 
  1531  0D99                     	;# 
  1532  0D9A                     	;# 
  1533  0D9B                     	;# 
  1534  0D9C                     	;# 
  1535  0D9D                     	;# 
  1536  0D9E                     	;# 
  1537  0D9E                     	;# 
  1538  0D9F                     	;# 
  1539  0DA0                     	;# 
  1540  0DA1                     	;# 
  1541  0DA1                     	;# 
  1542  0DA2                     	;# 
  1543  0DA3                     	;# 
  1544  0DA4                     	;# 
  1545  0DA4                     	;# 
  1546  0DA5                     	;# 
  1547  0DA6                     	;# 
  1548  0DA7                     	;# 
  1549  0DA7                     	;# 
  1550  0DA8                     	;# 
  1551  0DA9                     	;# 
  1552  0DAA                     	;# 
  1553  0DAB                     	;# 
  1554  0DAC                     	;# 
  1555  0DAD                     	;# 
  1556  0DAE                     	;# 
  1557  0DAF                     	;# 
  1558  0E0F                     	;# 
  1559  0E10                     	;# 
  1560  0E11                     	;# 
  1561  0E12                     	;# 
  1562  0E13                     	;# 
  1563  0E14                     	;# 
  1564  0E15                     	;# 
  1565  0E16                     	;# 
  1566  0E17                     	;# 
  1567  0E18                     	;# 
  1568  0E19                     	;# 
  1569  0E1A                     	;# 
  1570  0E1B                     	;# 
  1571  0E1C                     	;# 
  1572  0E1D                     	;# 
  1573  0E1E                     	;# 
  1574  0E1F                     	;# 
  1575  0E20                     	;# 
  1576  0E21                     	;# 
  1577  0E22                     	;# 
  1578  0E23                     	;# 
  1579  0E24                     	;# 
  1580  0E25                     	;# 
  1581  0E26                     	;# 
  1582  0E27                     	;# 
  1583  0E28                     	;# 
  1584  0E29                     	;# 
  1585  0E2A                     	;# 
  1586  0E2B                     	;# 
  1587  0E2C                     	;# 
  1588  0E2D                     	;# 
  1589  0E2E                     	;# 
  1590  0E90                     	;# 
  1591  0E91                     	;# 
  1592  0E92                     	;# 
  1593  0E94                     	;# 
  1594  0E95                     	;# 
  1595  0EA0                     	;# 
  1596  0EA1                     	;# 
  1597  0EA2                     	;# 
  1598  0EA3                     	;# 
  1599  0EA4                     	;# 
  1600  0EA5                     	;# 
  1601  0F0F                     	;# 
  1602  0F10                     	;# 
  1603  0F11                     	;# 
  1604  0F12                     	;# 
  1605  0F13                     	;# 
  1606  0F14                     	;# 
  1607  0F15                     	;# 
  1608  0F16                     	;# 
  1609  0F17                     	;# 
  1610  0F18                     	;# 
  1611  0F19                     	;# 
  1612  0F1A                     	;# 
  1613  0F1B                     	;# 
  1614  0F1C                     	;# 
  1615  0F1D                     	;# 
  1616  0F1E                     	;# 
  1617  0F1F                     	;# 
  1618  0F20                     	;# 
  1619  0F21                     	;# 
  1620  0F22                     	;# 
  1621  0F23                     	;# 
  1622  0FE4                     	;# 
  1623  0FE5                     	;# 
  1624  0FE6                     	;# 
  1625  0FE7                     	;# 
  1626  0FE8                     	;# 
  1627  0FE9                     	;# 
  1628  0FEA                     	;# 
  1629  0FEB                     	;# 
  1630  0FED                     	;# 
  1631  0FEE                     	;# 
  1632  0FEF                     	;# 
  1633  0000                     	;# 
  1634  0001                     	;# 
  1635  0002                     	;# 
  1636  0003                     	;# 
  1637  0004                     	;# 
  1638  0005                     	;# 
  1639  0006                     	;# 
  1640  0007                     	;# 
  1641  0008                     	;# 
  1642  0009                     	;# 
  1643  000A                     	;# 
  1644  000B                     	;# 
  1645  000C                     	;# 
  1646  000E                     	;# 
  1647  0010                     	;# 
  1648  0011                     	;# 
  1649  0012                     	;# 
  1650  0013                     	;# 
  1651  0014                     	;# 
  1652  0015                     	;# 
  1653  0016                     	;# 
  1654  0016                     	;# 
  1655  0017                     	;# 
  1656  0018                     	;# 
  1657  0019                     	;# 
  1658  001A                     	;# 
  1659  001A                     	;# 
  1660  001B                     	;# 
  1661  001B                     	;# 
  1662  001C                     	;# 
  1663  001D                     	;# 
  1664  001E                     	;# 
  1665  001F                     	;# 
  1666  008C                     	;# 
  1667  008E                     	;# 
  1668  0090                     	;# 
  1669  0091                     	;# 
  1670  0092                     	;# 
  1671  0093                     	;# 
  1672  0094                     	;# 
  1673  0095                     	;# 
  1674  0096                     	;# 
  1675  0098                     	;# 
  1676  0099                     	;# 
  1677  009A                     	;# 
  1678  009B                     	;# 
  1679  009B                     	;# 
  1680  009C                     	;# 
  1681  009D                     	;# 
  1682  009E                     	;# 
  1683  009F                     	;# 
  1684  010C                     	;# 
  1685  010E                     	;# 
  1686  0111                     	;# 
  1687  0112                     	;# 
  1688  0113                     	;# 
  1689  0114                     	;# 
  1690  0115                     	;# 
  1691  0116                     	;# 
  1692  0117                     	;# 
  1693  0118                     	;# 
  1694  0119                     	;# 
  1695  011C                     	;# 
  1696  018C                     	;# 
  1697  018E                     	;# 
  1698  0191                     	;# 
  1699  0191                     	;# 
  1700  0192                     	;# 
  1701  0193                     	;# 
  1702  0193                     	;# 
  1703  0194                     	;# 
  1704  0195                     	;# 
  1705  0196                     	;# 
  1706  0197                     	;# 
  1707  0199                     	;# 
  1708  0199                     	;# 
  1709  0199                     	;# 
  1710  019A                     	;# 
  1711  019A                     	;# 
  1712  019A                     	;# 
  1713  019B                     	;# 
  1714  019B                     	;# 
  1715  019B                     	;# 
  1716  019B                     	;# 
  1717  019B                     	;# 
  1718  019C                     	;# 
  1719  019C                     	;# 
  1720  019C                     	;# 
  1721  019D                     	;# 
  1722  019D                     	;# 
  1723  019D                     	;# 
  1724  019E                     	;# 
  1725  019E                     	;# 
  1726  019E                     	;# 
  1727  019F                     	;# 
  1728  019F                     	;# 
  1729  019F                     	;# 
  1730  019F                     	;# 
  1731  019F                     	;# 
  1732  020C                     	;# 
  1733  020E                     	;# 
  1734  0211                     	;# 
  1735  0211                     	;# 
  1736  0212                     	;# 
  1737  0212                     	;# 
  1738  0213                     	;# 
  1739  0213                     	;# 
  1740  0214                     	;# 
  1741  0214                     	;# 
  1742  0215                     	;# 
  1743  0215                     	;# 
  1744  0215                     	;# 
  1745  0215                     	;# 
  1746  0216                     	;# 
  1747  0216                     	;# 
  1748  0217                     	;# 
  1749  0217                     	;# 
  1750  028C                     	;# 
  1751  028E                     	;# 
  1752  0291                     	;# 
  1753  0291                     	;# 
  1754  0292                     	;# 
  1755  0293                     	;# 
  1756  0294                     	;# 
  1757  0298                     	;# 
  1758  0298                     	;# 
  1759  0299                     	;# 
  1760  029A                     	;# 
  1761  029B                     	;# 
  1762  029E                     	;# 
  1763  030C                     	;# 
  1764  030E                     	;# 
  1765  038C                     	;# 
  1766  038E                     	;# 
  1767  0391                     	;# 
  1768  0392                     	;# 
  1769  0393                     	;# 
  1770  0397                     	;# 
  1771  0398                     	;# 
  1772  0399                     	;# 
  1773  040E                     	;# 
  1774  0413                     	;# 
  1775  0413                     	;# 
  1776  0414                     	;# 
  1777  0414                     	;# 
  1778  0415                     	;# 
  1779  0416                     	;# 
  1780  0417                     	;# 
  1781  0418                     	;# 
  1782  041A                     	;# 
  1783  041A                     	;# 
  1784  041B                     	;# 
  1785  041B                     	;# 
  1786  041C                     	;# 
  1787  041D                     	;# 
  1788  041E                     	;# 
  1789  041F                     	;# 
  1790  0493                     	;# 
  1791  0494                     	;# 
  1792  0495                     	;# 
  1793  0496                     	;# 
  1794  049A                     	;# 
  1795  049B                     	;# 
  1796  049C                     	;# 
  1797  049D                     	;# 
  1798  058C                     	;# 
  1799  058C                     	;# 
  1800  058D                     	;# 
  1801  058E                     	;# 
  1802  058E                     	;# 
  1803  058F                     	;# 
  1804  0590                     	;# 
  1805  0590                     	;# 
  1806  0591                     	;# 
  1807  0592                     	;# 
  1808  0592                     	;# 
  1809  0593                     	;# 
  1810  0594                     	;# 
  1811  0594                     	;# 
  1812  0595                     	;# 
  1813  0596                     	;# 
  1814  0596                     	;# 
  1815  0597                     	;# 
  1816  0598                     	;# 
  1817  0599                     	;# 
  1818  059A                     	;# 
  1819  059B                     	;# 
  1820  059B                     	;# 
  1821  059C                     	;# 
  1822  059D                     	;# 
  1823  060C                     	;# 
  1824  060C                     	;# 
  1825  060D                     	;# 
  1826  060E                     	;# 
  1827  060F                     	;# 
  1828  060F                     	;# 
  1829  0610                     	;# 
  1830  0611                     	;# 
  1831  0612                     	;# 
  1832  0613                     	;# 
  1833  0614                     	;# 
  1834  0617                     	;# 
  1835  0618                     	;# 
  1836  0619                     	;# 
  1837  061A                     	;# 
  1838  061B                     	;# 
  1839  061C                     	;# 
  1840  0691                     	;# 
  1841  0692                     	;# 
  1842  0693                     	;# 
  1843  0694                     	;# 
  1844  0695                     	;# 
  1845  0696                     	;# 
  1846  0697                     	;# 
  1847  0699                     	;# 
  1848  069A                     	;# 
  1849  0711                     	;# 
  1850  0712                     	;# 
  1851  0713                     	;# 
  1852  0714                     	;# 
  1853  0715                     	;# 
  1854  0718                     	;# 
  1855  0718                     	;# 
  1856  0719                     	;# 
  1857  071A                     	;# 
  1858  071A                     	;# 
  1859  071B                     	;# 
  1860  071C                     	;# 
  1861  071D                     	;# 
  1862  0791                     	;# 
  1863  0791                     	;# 
  1864  0792                     	;# 
  1865  0793                     	;# 
  1866  0793                     	;# 
  1867  0794                     	;# 
  1868  0795                     	;# 
  1869  0795                     	;# 
  1870  0796                     	;# 
  1871  0797                     	;# 
  1872  0797                     	;# 
  1873  0798                     	;# 
  1874  0799                     	;# 
  1875  079A                     	;# 
  1876  080C                     	;# 
  1877  080C                     	;# 
  1878  080D                     	;# 
  1879  080E                     	;# 
  1880  080E                     	;# 
  1881  080F                     	;# 
  1882  0810                     	;# 
  1883  0810                     	;# 
  1884  0811                     	;# 
  1885  0812                     	;# 
  1886  0812                     	;# 
  1887  0813                     	;# 
  1888  0814                     	;# 
  1889  0815                     	;# 
  1890  0816                     	;# 
  1891  0817                     	;# 
  1892  0818                     	;# 
  1893  0819                     	;# 
  1894  081A                     	;# 
  1895  081A                     	;# 
  1896  081B                     	;# 
  1897  081C                     	;# 
  1898  081C                     	;# 
  1899  081D                     	;# 
  1900  088C                     	;# 
  1901  088D                     	;# 
  1902  088E                     	;# 
  1903  088F                     	;# 
  1904  088F                     	;# 
  1905  0890                     	;# 
  1906  0891                     	;# 
  1907  0892                     	;# 
  1908  0893                     	;# 
  1909  0893                     	;# 
  1910  0894                     	;# 
  1911  0895                     	;# 
  1912  0896                     	;# 
  1913  0897                     	;# 
  1914  0897                     	;# 
  1915  0898                     	;# 
  1916  0899                     	;# 
  1917  0D8C                     	;# 
  1918  0D8C                     	;# 
  1919  0D8D                     	;# 
  1920  0D8E                     	;# 
  1921  0D8F                     	;# 
  1922  0D8F                     	;# 
  1923  0D90                     	;# 
  1924  0D91                     	;# 
  1925  0D92                     	;# 
  1926  0D92                     	;# 
  1927  0D93                     	;# 
  1928  0D94                     	;# 
  1929  0D95                     	;# 
  1930  0D95                     	;# 
  1931  0D96                     	;# 
  1932  0D97                     	;# 
  1933  0D98                     	;# 
  1934  0D99                     	;# 
  1935  0D9A                     	;# 
  1936  0D9B                     	;# 
  1937  0D9C                     	;# 
  1938  0D9D                     	;# 
  1939  0D9E                     	;# 
  1940  0D9E                     	;# 
  1941  0D9F                     	;# 
  1942  0DA0                     	;# 
  1943  0DA1                     	;# 
  1944  0DA1                     	;# 
  1945  0DA2                     	;# 
  1946  0DA3                     	;# 
  1947  0DA4                     	;# 
  1948  0DA4                     	;# 
  1949  0DA5                     	;# 
  1950  0DA6                     	;# 
  1951  0DA7                     	;# 
  1952  0DA7                     	;# 
  1953  0DA8                     	;# 
  1954  0DA9                     	;# 
  1955  0DAA                     	;# 
  1956  0DAB                     	;# 
  1957  0DAC                     	;# 
  1958  0DAD                     	;# 
  1959  0DAE                     	;# 
  1960  0DAF                     	;# 
  1961  0E0F                     	;# 
  1962  0E10                     	;# 
  1963  0E11                     	;# 
  1964  0E12                     	;# 
  1965  0E13                     	;# 
  1966  0E14                     	;# 
  1967  0E15                     	;# 
  1968  0E16                     	;# 
  1969  0E17                     	;# 
  1970  0E18                     	;# 
  1971  0E19                     	;# 
  1972  0E1A                     	;# 
  1973  0E1B                     	;# 
  1974  0E1C                     	;# 
  1975  0E1D                     	;# 
  1976  0E1E                     	;# 
  1977  0E1F                     	;# 
  1978  0E20                     	;# 
  1979  0E21                     	;# 
  1980  0E22                     	;# 
  1981  0E23                     	;# 
  1982  0E24                     	;# 
  1983  0E25                     	;# 
  1984  0E26                     	;# 
  1985  0E27                     	;# 
  1986  0E28                     	;# 
  1987  0E29                     	;# 
  1988  0E2A                     	;# 
  1989  0E2B                     	;# 
  1990  0E2C                     	;# 
  1991  0E2D                     	;# 
  1992  0E2E                     	;# 
  1993  0E90                     	;# 
  1994  0E91                     	;# 
  1995  0E92                     	;# 
  1996  0E94                     	;# 
  1997  0E95                     	;# 
  1998  0EA0                     	;# 
  1999  0EA1                     	;# 
  2000  0EA2                     	;# 
  2001  0EA3                     	;# 
  2002  0EA4                     	;# 
  2003  0EA5                     	;# 
  2004  0F0F                     	;# 
  2005  0F10                     	;# 
  2006  0F11                     	;# 
  2007  0F12                     	;# 
  2008  0F13                     	;# 
  2009  0F14                     	;# 
  2010  0F15                     	;# 
  2011  0F16                     	;# 
  2012  0F17                     	;# 
  2013  0F18                     	;# 
  2014  0F19                     	;# 
  2015  0F1A                     	;# 
  2016  0F1B                     	;# 
  2017  0F1C                     	;# 
  2018  0F1D                     	;# 
  2019  0F1E                     	;# 
  2020  0F1F                     	;# 
  2021  0F20                     	;# 
  2022  0F21                     	;# 
  2023  0F22                     	;# 
  2024  0F23                     	;# 
  2025  0FE4                     	;# 
  2026  0FE5                     	;# 
  2027  0FE6                     	;# 
  2028  0FE7                     	;# 
  2029  0FE8                     	;# 
  2030  0FE9                     	;# 
  2031  0FEA                     	;# 
  2032  0FEB                     	;# 
  2033  0FED                     	;# 
  2034  0FEE                     	;# 
  2035  0FEF                     	;# 
  2036  0000                     	;# 
  2037  0001                     	;# 
  2038  0002                     	;# 
  2039  0003                     	;# 
  2040  0004                     	;# 
  2041  0005                     	;# 
  2042  0006                     	;# 
  2043  0007                     	;# 
  2044  0008                     	;# 
  2045  0009                     	;# 
  2046  000A                     	;# 
  2047  000B                     	;# 
  2048  000C                     	;# 
  2049  000E                     	;# 
  2050  0010                     	;# 
  2051  0011                     	;# 
  2052  0012                     	;# 
  2053  0013                     	;# 
  2054  0014                     	;# 
  2055  0015                     	;# 
  2056  0016                     	;# 
  2057  0016                     	;# 
  2058  0017                     	;# 
  2059  0018                     	;# 
  2060  0019                     	;# 
  2061  001A                     	;# 
  2062  001A                     	;# 
  2063  001B                     	;# 
  2064  001B                     	;# 
  2065  001C                     	;# 
  2066  001D                     	;# 
  2067  001E                     	;# 
  2068  001F                     	;# 
  2069  008C                     	;# 
  2070  008E                     	;# 
  2071  0090                     	;# 
  2072  0091                     	;# 
  2073  0092                     	;# 
  2074  0093                     	;# 
  2075  0094                     	;# 
  2076  0095                     	;# 
  2077  0096                     	;# 
  2078  0098                     	;# 
  2079  0099                     	;# 
  2080  009A                     	;# 
  2081  009B                     	;# 
  2082  009B                     	;# 
  2083  009C                     	;# 
  2084  009D                     	;# 
  2085  009E                     	;# 
  2086  009F                     	;# 
  2087  010C                     	;# 
  2088  010E                     	;# 
  2089  0111                     	;# 
  2090  0112                     	;# 
  2091  0113                     	;# 
  2092  0114                     	;# 
  2093  0115                     	;# 
  2094  0116                     	;# 
  2095  0117                     	;# 
  2096  0118                     	;# 
  2097  0119                     	;# 
  2098  011C                     	;# 
  2099  018C                     	;# 
  2100  018E                     	;# 
  2101  0191                     	;# 
  2102  0191                     	;# 
  2103  0192                     	;# 
  2104  0193                     	;# 
  2105  0193                     	;# 
  2106  0194                     	;# 
  2107  0195                     	;# 
  2108  0196                     	;# 
  2109  0197                     	;# 
  2110  0199                     	;# 
  2111  0199                     	;# 
  2112  0199                     	;# 
  2113  019A                     	;# 
  2114  019A                     	;# 
  2115  019A                     	;# 
  2116  019B                     	;# 
  2117  019B                     	;# 
  2118  019B                     	;# 
  2119  019B                     	;# 
  2120  019B                     	;# 
  2121  019C                     	;# 
  2122  019C                     	;# 
  2123  019C                     	;# 
  2124  019D                     	;# 
  2125  019D                     	;# 
  2126  019D                     	;# 
  2127  019E                     	;# 
  2128  019E                     	;# 
  2129  019E                     	;# 
  2130  019F                     	;# 
  2131  019F                     	;# 
  2132  019F                     	;# 
  2133  019F                     	;# 
  2134  019F                     	;# 
  2135  020C                     	;# 
  2136  020E                     	;# 
  2137  0211                     	;# 
  2138  0211                     	;# 
  2139  0212                     	;# 
  2140  0212                     	;# 
  2141  0213                     	;# 
  2142  0213                     	;# 
  2143  0214                     	;# 
  2144  0214                     	;# 
  2145  0215                     	;# 
  2146  0215                     	;# 
  2147  0215                     	;# 
  2148  0215                     	;# 
  2149  0216                     	;# 
  2150  0216                     	;# 
  2151  0217                     	;# 
  2152  0217                     	;# 
  2153  028C                     	;# 
  2154  028E                     	;# 
  2155  0291                     	;# 
  2156  0291                     	;# 
  2157  0292                     	;# 
  2158  0293                     	;# 
  2159  0294                     	;# 
  2160  0298                     	;# 
  2161  0298                     	;# 
  2162  0299                     	;# 
  2163  029A                     	;# 
  2164  029B                     	;# 
  2165  029E                     	;# 
  2166  030C                     	;# 
  2167  030E                     	;# 
  2168  038C                     	;# 
  2169  038E                     	;# 
  2170  0391                     	;# 
  2171  0392                     	;# 
  2172  0393                     	;# 
  2173  0397                     	;# 
  2174  0398                     	;# 
  2175  0399                     	;# 
  2176  040E                     	;# 
  2177  0413                     	;# 
  2178  0413                     	;# 
  2179  0414                     	;# 
  2180  0414                     	;# 
  2181  0415                     	;# 
  2182  0416                     	;# 
  2183  0417                     	;# 
  2184  0418                     	;# 
  2185  041A                     	;# 
  2186  041A                     	;# 
  2187  041B                     	;# 
  2188  041B                     	;# 
  2189  041C                     	;# 
  2190  041D                     	;# 
  2191  041E                     	;# 
  2192  041F                     	;# 
  2193  0493                     	;# 
  2194  0494                     	;# 
  2195  0495                     	;# 
  2196  0496                     	;# 
  2197  049A                     	;# 
  2198  049B                     	;# 
  2199  049C                     	;# 
  2200  049D                     	;# 
  2201  058C                     	;# 
  2202  058C                     	;# 
  2203  058D                     	;# 
  2204  058E                     	;# 
  2205  058E                     	;# 
  2206  058F                     	;# 
  2207  0590                     	;# 
  2208  0590                     	;# 
  2209  0591                     	;# 
  2210  0592                     	;# 
  2211  0592                     	;# 
  2212  0593                     	;# 
  2213  0594                     	;# 
  2214  0594                     	;# 
  2215  0595                     	;# 
  2216  0596                     	;# 
  2217  0596                     	;# 
  2218  0597                     	;# 
  2219  0598                     	;# 
  2220  0599                     	;# 
  2221  059A                     	;# 
  2222  059B                     	;# 
  2223  059B                     	;# 
  2224  059C                     	;# 
  2225  059D                     	;# 
  2226  060C                     	;# 
  2227  060C                     	;# 
  2228  060D                     	;# 
  2229  060E                     	;# 
  2230  060F                     	;# 
  2231  060F                     	;# 
  2232  0610                     	;# 
  2233  0611                     	;# 
  2234  0612                     	;# 
  2235  0613                     	;# 
  2236  0614                     	;# 
  2237  0617                     	;# 
  2238  0618                     	;# 
  2239  0619                     	;# 
  2240  061A                     	;# 
  2241  061B                     	;# 
  2242  061C                     	;# 
  2243  0691                     	;# 
  2244  0692                     	;# 
  2245  0693                     	;# 
  2246  0694                     	;# 
  2247  0695                     	;# 
  2248  0696                     	;# 
  2249  0697                     	;# 
  2250  0699                     	;# 
  2251  069A                     	;# 
  2252  0711                     	;# 
  2253  0712                     	;# 
  2254  0713                     	;# 
  2255  0714                     	;# 
  2256  0715                     	;# 
  2257  0718                     	;# 
  2258  0718                     	;# 
  2259  0719                     	;# 
  2260  071A                     	;# 
  2261  071A                     	;# 
  2262  071B                     	;# 
  2263  071C                     	;# 
  2264  071D                     	;# 
  2265  0791                     	;# 
  2266  0791                     	;# 
  2267  0792                     	;# 
  2268  0793                     	;# 
  2269  0793                     	;# 
  2270  0794                     	;# 
  2271  0795                     	;# 
  2272  0795                     	;# 
  2273  0796                     	;# 
  2274  0797                     	;# 
  2275  0797                     	;# 
  2276  0798                     	;# 
  2277  0799                     	;# 
  2278  079A                     	;# 
  2279  080C                     	;# 
  2280  080C                     	;# 
  2281  080D                     	;# 
  2282  080E                     	;# 
  2283  080E                     	;# 
  2284  080F                     	;# 
  2285  0810                     	;# 
  2286  0810                     	;# 
  2287  0811                     	;# 
  2288  0812                     	;# 
  2289  0812                     	;# 
  2290  0813                     	;# 
  2291  0814                     	;# 
  2292  0815                     	;# 
  2293  0816                     	;# 
  2294  0817                     	;# 
  2295  0818                     	;# 
  2296  0819                     	;# 
  2297  081A                     	;# 
  2298  081A                     	;# 
  2299  081B                     	;# 
  2300  081C                     	;# 
  2301  081C                     	;# 
  2302  081D                     	;# 
  2303  088C                     	;# 
  2304  088D                     	;# 
  2305  088E                     	;# 
  2306  088F                     	;# 
  2307  088F                     	;# 
  2308  0890                     	;# 
  2309  0891                     	;# 
  2310  0892                     	;# 
  2311  0893                     	;# 
  2312  0893                     	;# 
  2313  0894                     	;# 
  2314  0895                     	;# 
  2315  0896                     	;# 
  2316  0897                     	;# 
  2317  0897                     	;# 
  2318  0898                     	;# 
  2319  0899                     	;# 
  2320  0D8C                     	;# 
  2321  0D8C                     	;# 
  2322  0D8D                     	;# 
  2323  0D8E                     	;# 
  2324  0D8F                     	;# 
  2325  0D8F                     	;# 
  2326  0D90                     	;# 
  2327  0D91                     	;# 
  2328  0D92                     	;# 
  2329  0D92                     	;# 
  2330  0D93                     	;# 
  2331  0D94                     	;# 
  2332  0D95                     	;# 
  2333  0D95                     	;# 
  2334  0D96                     	;# 
  2335  0D97                     	;# 
  2336  0D98                     	;# 
  2337  0D99                     	;# 
  2338  0D9A                     	;# 
  2339  0D9B                     	;# 
  2340  0D9C                     	;# 
  2341  0D9D                     	;# 
  2342  0D9E                     	;# 
  2343  0D9E                     	;# 
  2344  0D9F                     	;# 
  2345  0DA0                     	;# 
  2346  0DA1                     	;# 
  2347  0DA1                     	;# 
  2348  0DA2                     	;# 
  2349  0DA3                     	;# 
  2350  0DA4                     	;# 
  2351  0DA4                     	;# 
  2352  0DA5                     	;# 
  2353  0DA6                     	;# 
  2354  0DA7                     	;# 
  2355  0DA7                     	;# 
  2356  0DA8                     	;# 
  2357  0DA9                     	;# 
  2358  0DAA                     	;# 
  2359  0DAB                     	;# 
  2360  0DAC                     	;# 
  2361  0DAD                     	;# 
  2362  0DAE                     	;# 
  2363  0DAF                     	;# 
  2364  0E0F                     	;# 
  2365  0E10                     	;# 
  2366  0E11                     	;# 
  2367  0E12                     	;# 
  2368  0E13                     	;# 
  2369  0E14                     	;# 
  2370  0E15                     	;# 
  2371  0E16                     	;# 
  2372  0E17                     	;# 
  2373  0E18                     	;# 
  2374  0E19                     	;# 
  2375  0E1A                     	;# 
  2376  0E1B                     	;# 
  2377  0E1C                     	;# 
  2378  0E1D                     	;# 
  2379  0E1E                     	;# 
  2380  0E1F                     	;# 
  2381  0E20                     	;# 
  2382  0E21                     	;# 
  2383  0E22                     	;# 
  2384  0E23                     	;# 
  2385  0E24                     	;# 
  2386  0E25                     	;# 
  2387  0E26                     	;# 
  2388  0E27                     	;# 
  2389  0E28                     	;# 
  2390  0E29                     	;# 
  2391  0E2A                     	;# 
  2392  0E2B                     	;# 
  2393  0E2C                     	;# 
  2394  0E2D                     	;# 
  2395  0E2E                     	;# 
  2396  0E90                     	;# 
  2397  0E91                     	;# 
  2398  0E92                     	;# 
  2399  0E94                     	;# 
  2400  0E95                     	;# 
  2401  0EA0                     	;# 
  2402  0EA1                     	;# 
  2403  0EA2                     	;# 
  2404  0EA3                     	;# 
  2405  0EA4                     	;# 
  2406  0EA5                     	;# 
  2407  0F0F                     	;# 
  2408  0F10                     	;# 
  2409  0F11                     	;# 
  2410  0F12                     	;# 
  2411  0F13                     	;# 
  2412  0F14                     	;# 
  2413  0F15                     	;# 
  2414  0F16                     	;# 
  2415  0F17                     	;# 
  2416  0F18                     	;# 
  2417  0F19                     	;# 
  2418  0F1A                     	;# 
  2419  0F1B                     	;# 
  2420  0F1C                     	;# 
  2421  0F1D                     	;# 
  2422  0F1E                     	;# 
  2423  0F1F                     	;# 
  2424  0F20                     	;# 
  2425  0F21                     	;# 
  2426  0F22                     	;# 
  2427  0F23                     	;# 
  2428  0FE4                     	;# 
  2429  0FE5                     	;# 
  2430  0FE6                     	;# 
  2431  0FE7                     	;# 
  2432  0FE8                     	;# 
  2433  0FE9                     	;# 
  2434  0FEA                     	;# 
  2435  0FEB                     	;# 
  2436  0FED                     	;# 
  2437  0FEE                     	;# 
  2438  0FEF                     	;# 
  2439  0000                     	;# 
  2440  0001                     	;# 
  2441  0002                     	;# 
  2442  0003                     	;# 
  2443  0004                     	;# 
  2444  0005                     	;# 
  2445  0006                     	;# 
  2446  0007                     	;# 
  2447  0008                     	;# 
  2448  0009                     	;# 
  2449  000A                     	;# 
  2450  000B                     	;# 
  2451  000C                     	;# 
  2452  000E                     	;# 
  2453  0010                     	;# 
  2454  0011                     	;# 
  2455  0012                     	;# 
  2456  0013                     	;# 
  2457  0014                     	;# 
  2458  0015                     	;# 
  2459  0016                     	;# 
  2460  0016                     	;# 
  2461  0017                     	;# 
  2462  0018                     	;# 
  2463  0019                     	;# 
  2464  001A                     	;# 
  2465  001A                     	;# 
  2466  001B                     	;# 
  2467  001B                     	;# 
  2468  001C                     	;# 
  2469  001D                     	;# 
  2470  001E                     	;# 
  2471  001F                     	;# 
  2472  008C                     	;# 
  2473  008E                     	;# 
  2474  0090                     	;# 
  2475  0091                     	;# 
  2476  0092                     	;# 
  2477  0093                     	;# 
  2478  0094                     	;# 
  2479  0095                     	;# 
  2480  0096                     	;# 
  2481  0098                     	;# 
  2482  0099                     	;# 
  2483  009A                     	;# 
  2484  009B                     	;# 
  2485  009B                     	;# 
  2486  009C                     	;# 
  2487  009D                     	;# 
  2488  009E                     	;# 
  2489  009F                     	;# 
  2490  010C                     	;# 
  2491  010E                     	;# 
  2492  0111                     	;# 
  2493  0112                     	;# 
  2494  0113                     	;# 
  2495  0114                     	;# 
  2496  0115                     	;# 
  2497  0116                     	;# 
  2498  0117                     	;# 
  2499  0118                     	;# 
  2500  0119                     	;# 
  2501  011C                     	;# 
  2502  018C                     	;# 
  2503  018E                     	;# 
  2504  0191                     	;# 
  2505  0191                     	;# 
  2506  0192                     	;# 
  2507  0193                     	;# 
  2508  0193                     	;# 
  2509  0194                     	;# 
  2510  0195                     	;# 
  2511  0196                     	;# 
  2512  0197                     	;# 
  2513  0199                     	;# 
  2514  0199                     	;# 
  2515  0199                     	;# 
  2516  019A                     	;# 
  2517  019A                     	;# 
  2518  019A                     	;# 
  2519  019B                     	;# 
  2520  019B                     	;# 
  2521  019B                     	;# 
  2522  019B                     	;# 
  2523  019B                     	;# 
  2524  019C                     	;# 
  2525  019C                     	;# 
  2526  019C                     	;# 
  2527  019D                     	;# 
  2528  019D                     	;# 
  2529  019D                     	;# 
  2530  019E                     	;# 
  2531  019E                     	;# 
  2532  019E                     	;# 
  2533  019F                     	;# 
  2534  019F                     	;# 
  2535  019F                     	;# 
  2536  019F                     	;# 
  2537  019F                     	;# 
  2538  020C                     	;# 
  2539  020E                     	;# 
  2540  0211                     	;# 
  2541  0211                     	;# 
  2542  0212                     	;# 
  2543  0212                     	;# 
  2544  0213                     	;# 
  2545  0213                     	;# 
  2546  0214                     	;# 
  2547  0214                     	;# 
  2548  0215                     	;# 
  2549  0215                     	;# 
  2550  0215                     	;# 
  2551  0215                     	;# 
  2552  0216                     	;# 
  2553  0216                     	;# 
  2554  0217                     	;# 
  2555  0217                     	;# 
  2556  028C                     	;# 
  2557  028E                     	;# 
  2558  0291                     	;# 
  2559  0291                     	;# 
  2560  0292                     	;# 
  2561  0293                     	;# 
  2562  0294                     	;# 
  2563  0298                     	;# 
  2564  0298                     	;# 
  2565  0299                     	;# 
  2566  029A                     	;# 
  2567  029B                     	;# 
  2568  029E                     	;# 
  2569  030C                     	;# 
  2570  030E                     	;# 
  2571  038C                     	;# 
  2572  038E                     	;# 
  2573  0391                     	;# 
  2574  0392                     	;# 
  2575  0393                     	;# 
  2576  0397                     	;# 
  2577  0398                     	;# 
  2578  0399                     	;# 
  2579  040E                     	;# 
  2580  0413                     	;# 
  2581  0413                     	;# 
  2582  0414                     	;# 
  2583  0414                     	;# 
  2584  0415                     	;# 
  2585  0416                     	;# 
  2586  0417                     	;# 
  2587  0418                     	;# 
  2588  041A                     	;# 
  2589  041A                     	;# 
  2590  041B                     	;# 
  2591  041B                     	;# 
  2592  041C                     	;# 
  2593  041D                     	;# 
  2594  041E                     	;# 
  2595  041F                     	;# 
  2596  0493                     	;# 
  2597  0494                     	;# 
  2598  0495                     	;# 
  2599  0496                     	;# 
  2600  049A                     	;# 
  2601  049B                     	;# 
  2602  049C                     	;# 
  2603  049D                     	;# 
  2604  058C                     	;# 
  2605  058C                     	;# 
  2606  058D                     	;# 
  2607  058E                     	;# 
  2608  058E                     	;# 
  2609  058F                     	;# 
  2610  0590                     	;# 
  2611  0590                     	;# 
  2612  0591                     	;# 
  2613  0592                     	;# 
  2614  0592                     	;# 
  2615  0593                     	;# 
  2616  0594                     	;# 
  2617  0594                     	;# 
  2618  0595                     	;# 
  2619  0596                     	;# 
  2620  0596                     	;# 
  2621  0597                     	;# 
  2622  0598                     	;# 
  2623  0599                     	;# 
  2624  059A                     	;# 
  2625  059B                     	;# 
  2626  059B                     	;# 
  2627  059C                     	;# 
  2628  059D                     	;# 
  2629  060C                     	;# 
  2630  060C                     	;# 
  2631  060D                     	;# 
  2632  060E                     	;# 
  2633  060F                     	;# 
  2634  060F                     	;# 
  2635  0610                     	;# 
  2636  0611                     	;# 
  2637  0612                     	;# 
  2638  0613                     	;# 
  2639  0614                     	;# 
  2640  0617                     	;# 
  2641  0618                     	;# 
  2642  0619                     	;# 
  2643  061A                     	;# 
  2644  061B                     	;# 
  2645  061C                     	;# 
  2646  0691                     	;# 
  2647  0692                     	;# 
  2648  0693                     	;# 
  2649  0694                     	;# 
  2650  0695                     	;# 
  2651  0696                     	;# 
  2652  0697                     	;# 
  2653  0699                     	;# 
  2654  069A                     	;# 
  2655  0711                     	;# 
  2656  0712                     	;# 
  2657  0713                     	;# 
  2658  0714                     	;# 
  2659  0715                     	;# 
  2660  0718                     	;# 
  2661  0718                     	;# 
  2662  0719                     	;# 
  2663  071A                     	;# 
  2664  071A                     	;# 
  2665  071B                     	;# 
  2666  071C                     	;# 
  2667  071D                     	;# 
  2668  0791                     	;# 
  2669  0791                     	;# 
  2670  0792                     	;# 
  2671  0793                     	;# 
  2672  0793                     	;# 
  2673  0794                     	;# 
  2674  0795                     	;# 
  2675  0795                     	;# 
  2676  0796                     	;# 
  2677  0797                     	;# 
  2678  0797                     	;# 
  2679  0798                     	;# 
  2680  0799                     	;# 
  2681  079A                     	;# 
  2682  080C                     	;# 
  2683  080C                     	;# 
  2684  080D                     	;# 
  2685  080E                     	;# 
  2686  080E                     	;# 
  2687  080F                     	;# 
  2688  0810                     	;# 
  2689  0810                     	;# 
  2690  0811                     	;# 
  2691  0812                     	;# 
  2692  0812                     	;# 
  2693  0813                     	;# 
  2694  0814                     	;# 
  2695  0815                     	;# 
  2696  0816                     	;# 
  2697  0817                     	;# 
  2698  0818                     	;# 
  2699  0819                     	;# 
  2700  081A                     	;# 
  2701  081A                     	;# 
  2702  081B                     	;# 
  2703  081C                     	;# 
  2704  081C                     	;# 
  2705  081D                     	;# 
  2706  088C                     	;# 
  2707  088D                     	;# 
  2708  088E                     	;# 
  2709  088F                     	;# 
  2710  088F                     	;# 
  2711  0890                     	;# 
  2712  0891                     	;# 
  2713  0892                     	;# 
  2714  0893                     	;# 
  2715  0893                     	;# 
  2716  0894                     	;# 
  2717  0895                     	;# 
  2718  0896                     	;# 
  2719  0897                     	;# 
  2720  0897                     	;# 
  2721  0898                     	;# 
  2722  0899                     	;# 
  2723  0D8C                     	;# 
  2724  0D8C                     	;# 
  2725  0D8D                     	;# 
  2726  0D8E                     	;# 
  2727  0D8F                     	;# 
  2728  0D8F                     	;# 
  2729  0D90                     	;# 
  2730  0D91                     	;# 
  2731  0D92                     	;# 
  2732  0D92                     	;# 
  2733  0D93                     	;# 
  2734  0D94                     	;# 
  2735  0D95                     	;# 
  2736  0D95                     	;# 
  2737  0D96                     	;# 
  2738  0D97                     	;# 
  2739  0D98                     	;# 
  2740  0D99                     	;# 
  2741  0D9A                     	;# 
  2742  0D9B                     	;# 
  2743  0D9C                     	;# 
  2744  0D9D                     	;# 
  2745  0D9E                     	;# 
  2746  0D9E                     	;# 
  2747  0D9F                     	;# 
  2748  0DA0                     	;# 
  2749  0DA1                     	;# 
  2750  0DA1                     	;# 
  2751  0DA2                     	;# 
  2752  0DA3                     	;# 
  2753  0DA4                     	;# 
  2754  0DA4                     	;# 
  2755  0DA5                     	;# 
  2756  0DA6                     	;# 
  2757  0DA7                     	;# 
  2758  0DA7                     	;# 
  2759  0DA8                     	;# 
  2760  0DA9                     	;# 
  2761  0DAA                     	;# 
  2762  0DAB                     	;# 
  2763  0DAC                     	;# 
  2764  0DAD                     	;# 
  2765  0DAE                     	;# 
  2766  0DAF                     	;# 
  2767  0E0F                     	;# 
  2768  0E10                     	;# 
  2769  0E11                     	;# 
  2770  0E12                     	;# 
  2771  0E13                     	;# 
  2772  0E14                     	;# 
  2773  0E15                     	;# 
  2774  0E16                     	;# 
  2775  0E17                     	;# 
  2776  0E18                     	;# 
  2777  0E19                     	;# 
  2778  0E1A                     	;# 
  2779  0E1B                     	;# 
  2780  0E1C                     	;# 
  2781  0E1D                     	;# 
  2782  0E1E                     	;# 
  2783  0E1F                     	;# 
  2784  0E20                     	;# 
  2785  0E21                     	;# 
  2786  0E22                     	;# 
  2787  0E23                     	;# 
  2788  0E24                     	;# 
  2789  0E25                     	;# 
  2790  0E26                     	;# 
  2791  0E27                     	;# 
  2792  0E28                     	;# 
  2793  0E29                     	;# 
  2794  0E2A                     	;# 
  2795  0E2B                     	;# 
  2796  0E2C                     	;# 
  2797  0E2D                     	;# 
  2798  0E2E                     	;# 
  2799  0E90                     	;# 
  2800  0E91                     	;# 
  2801  0E92                     	;# 
  2802  0E94                     	;# 
  2803  0E95                     	;# 
  2804  0EA0                     	;# 
  2805  0EA1                     	;# 
  2806  0EA2                     	;# 
  2807  0EA3                     	;# 
  2808  0EA4                     	;# 
  2809  0EA5                     	;# 
  2810  0F0F                     	;# 
  2811  0F10                     	;# 
  2812  0F11                     	;# 
  2813  0F12                     	;# 
  2814  0F13                     	;# 
  2815  0F14                     	;# 
  2816  0F15                     	;# 
  2817  0F16                     	;# 
  2818  0F17                     	;# 
  2819  0F18                     	;# 
  2820  0F19                     	;# 
  2821  0F1A                     	;# 
  2822  0F1B                     	;# 
  2823  0F1C                     	;# 
  2824  0F1D                     	;# 
  2825  0F1E                     	;# 
  2826  0F1F                     	;# 
  2827  0F20                     	;# 
  2828  0F21                     	;# 
  2829  0F22                     	;# 
  2830  0F23                     	;# 
  2831  0FE4                     	;# 
  2832  0FE5                     	;# 
  2833  0FE6                     	;# 
  2834  0FE7                     	;# 
  2835  0FE8                     	;# 
  2836  0FE9                     	;# 
  2837  0FEA                     	;# 
  2838  0FEB                     	;# 
  2839  0FED                     	;# 
  2840  0FEE                     	;# 
  2841  0FEF                     	;# 
  2842  0000                     	;# 
  2843  0001                     	;# 
  2844  0002                     	;# 
  2845  0003                     	;# 
  2846  0004                     	;# 
  2847  0005                     	;# 
  2848  0006                     	;# 
  2849  0007                     	;# 
  2850  0008                     	;# 
  2851  0009                     	;# 
  2852  000A                     	;# 
  2853  000B                     	;# 
  2854  000C                     	;# 
  2855  000E                     	;# 
  2856  0010                     	;# 
  2857  0011                     	;# 
  2858  0012                     	;# 
  2859  0013                     	;# 
  2860  0014                     	;# 
  2861  0015                     	;# 
  2862  0016                     	;# 
  2863  0016                     	;# 
  2864  0017                     	;# 
  2865  0018                     	;# 
  2866  0019                     	;# 
  2867  001A                     	;# 
  2868  001A                     	;# 
  2869  001B                     	;# 
  2870  001B                     	;# 
  2871  001C                     	;# 
  2872  001D                     	;# 
  2873  001E                     	;# 
  2874  001F                     	;# 
  2875  008C                     	;# 
  2876  008E                     	;# 
  2877  0090                     	;# 
  2878  0091                     	;# 
  2879  0092                     	;# 
  2880  0093                     	;# 
  2881  0094                     	;# 
  2882  0095                     	;# 
  2883  0096                     	;# 
  2884  0098                     	;# 
  2885  0099                     	;# 
  2886  009A                     	;# 
  2887  009B                     	;# 
  2888  009B                     	;# 
  2889  009C                     	;# 
  2890  009D                     	;# 
  2891  009E                     	;# 
  2892  009F                     	;# 
  2893  010C                     	;# 
  2894  010E                     	;# 
  2895  0111                     	;# 
  2896  0112                     	;# 
  2897  0113                     	;# 
  2898  0114                     	;# 
  2899  0115                     	;# 
  2900  0116                     	;# 
  2901  0117                     	;# 
  2902  0118                     	;# 
  2903  0119                     	;# 
  2904  011C                     	;# 
  2905  018C                     	;# 
  2906  018E                     	;# 
  2907  0191                     	;# 
  2908  0191                     	;# 
  2909  0192                     	;# 
  2910  0193                     	;# 
  2911  0193                     	;# 
  2912  0194                     	;# 
  2913  0195                     	;# 
  2914  0196                     	;# 
  2915  0197                     	;# 
  2916  0199                     	;# 
  2917  0199                     	;# 
  2918  0199                     	;# 
  2919  019A                     	;# 
  2920  019A                     	;# 
  2921  019A                     	;# 
  2922  019B                     	;# 
  2923  019B                     	;# 
  2924  019B                     	;# 
  2925  019B                     	;# 
  2926  019B                     	;# 
  2927  019C                     	;# 
  2928  019C                     	;# 
  2929  019C                     	;# 
  2930  019D                     	;# 
  2931  019D                     	;# 
  2932  019D                     	;# 
  2933  019E                     	;# 
  2934  019E                     	;# 
  2935  019E                     	;# 
  2936  019F                     	;# 
  2937  019F                     	;# 
  2938  019F                     	;# 
  2939  019F                     	;# 
  2940  019F                     	;# 
  2941  020C                     	;# 
  2942  020E                     	;# 
  2943  0211                     	;# 
  2944  0211                     	;# 
  2945  0212                     	;# 
  2946  0212                     	;# 
  2947  0213                     	;# 
  2948  0213                     	;# 
  2949  0214                     	;# 
  2950  0214                     	;# 
  2951  0215                     	;# 
  2952  0215                     	;# 
  2953  0215                     	;# 
  2954  0215                     	;# 
  2955  0216                     	;# 
  2956  0216                     	;# 
  2957  0217                     	;# 
  2958  0217                     	;# 
  2959  028C                     	;# 
  2960  028E                     	;# 
  2961  0291                     	;# 
  2962  0291                     	;# 
  2963  0292                     	;# 
  2964  0293                     	;# 
  2965  0294                     	;# 
  2966  0298                     	;# 
  2967  0298                     	;# 
  2968  0299                     	;# 
  2969  029A                     	;# 
  2970  029B                     	;# 
  2971  029E                     	;# 
  2972  030C                     	;# 
  2973  030E                     	;# 
  2974  038C                     	;# 
  2975  038E                     	;# 
  2976  0391                     	;# 
  2977  0392                     	;# 
  2978  0393                     	;# 
  2979  0397                     	;# 
  2980  0398                     	;# 
  2981  0399                     	;# 
  2982  040E                     	;# 
  2983  0413                     	;# 
  2984  0413                     	;# 
  2985  0414                     	;# 
  2986  0414                     	;# 
  2987  0415                     	;# 
  2988  0416                     	;# 
  2989  0417                     	;# 
  2990  0418                     	;# 
  2991  041A                     	;# 
  2992  041A                     	;# 
  2993  041B                     	;# 
  2994  041B                     	;# 
  2995  041C                     	;# 
  2996  041D                     	;# 
  2997  041E                     	;# 
  2998  041F                     	;# 
  2999  0493                     	;# 
  3000  0494                     	;# 
  3001  0495                     	;# 
  3002  0496                     	;# 
  3003  049A                     	;# 
  3004  049B                     	;# 
  3005  049C                     	;# 
  3006  049D                     	;# 
  3007  058C                     	;# 
  3008  058C                     	;# 
  3009  058D                     	;# 
  3010  058E                     	;# 
  3011  058E                     	;# 
  3012  058F                     	;# 
  3013  0590                     	;# 
  3014  0590                     	;# 
  3015  0591                     	;# 
  3016  0592                     	;# 
  3017  0592                     	;# 
  3018  0593                     	;# 
  3019  0594                     	;# 
  3020  0594                     	;# 
  3021  0595                     	;# 
  3022  0596                     	;# 
  3023  0596                     	;# 
  3024  0597                     	;# 
  3025  0598                     	;# 
  3026  0599                     	;# 
  3027  059A                     	;# 
  3028  059B                     	;# 
  3029  059B                     	;# 
  3030  059C                     	;# 
  3031  059D                     	;# 
  3032  060C                     	;# 
  3033  060C                     	;# 
  3034  060D                     	;# 
  3035  060E                     	;# 
  3036  060F                     	;# 
  3037  060F                     	;# 
  3038  0610                     	;# 
  3039  0611                     	;# 
  3040  0612                     	;# 
  3041  0613                     	;# 
  3042  0614                     	;# 
  3043  0617                     	;# 
  3044  0618                     	;# 
  3045  0619                     	;# 
  3046  061A                     	;# 
  3047  061B                     	;# 
  3048  061C                     	;# 
  3049  0691                     	;# 
  3050  0692                     	;# 
  3051  0693                     	;# 
  3052  0694                     	;# 
  3053  0695                     	;# 
  3054  0696                     	;# 
  3055  0697                     	;# 
  3056  0699                     	;# 
  3057  069A                     	;# 
  3058  0711                     	;# 
  3059  0712                     	;# 
  3060  0713                     	;# 
  3061  0714                     	;# 
  3062  0715                     	;# 
  3063  0718                     	;# 
  3064  0718                     	;# 
  3065  0719                     	;# 
  3066  071A                     	;# 
  3067  071A                     	;# 
  3068  071B                     	;# 
  3069  071C                     	;# 
  3070  071D                     	;# 
  3071  0791                     	;# 
  3072  0791                     	;# 
  3073  0792                     	;# 
  3074  0793                     	;# 
  3075  0793                     	;# 
  3076  0794                     	;# 
  3077  0795                     	;# 
  3078  0795                     	;# 
  3079  0796                     	;# 
  3080  0797                     	;# 
  3081  0797                     	;# 
  3082  0798                     	;# 
  3083  0799                     	;# 
  3084  079A                     	;# 
  3085  080C                     	;# 
  3086  080C                     	;# 
  3087  080D                     	;# 
  3088  080E                     	;# 
  3089  080E                     	;# 
  3090  080F                     	;# 
  3091  0810                     	;# 
  3092  0810                     	;# 
  3093  0811                     	;# 
  3094  0812                     	;# 
  3095  0812                     	;# 
  3096  0813                     	;# 
  3097  0814                     	;# 
  3098  0815                     	;# 
  3099  0816                     	;# 
  3100  0817                     	;# 
  3101  0818                     	;# 
  3102  0819                     	;# 
  3103  081A                     	;# 
  3104  081A                     	;# 
  3105  081B                     	;# 
  3106  081C                     	;# 
  3107  081C                     	;# 
  3108  081D                     	;# 
  3109  088C                     	;# 
  3110  088D                     	;# 
  3111  088E                     	;# 
  3112  088F                     	;# 
  3113  088F                     	;# 
  3114  0890                     	;# 
  3115  0891                     	;# 
  3116  0892                     	;# 
  3117  0893                     	;# 
  3118  0893                     	;# 
  3119  0894                     	;# 
  3120  0895                     	;# 
  3121  0896                     	;# 
  3122  0897                     	;# 
  3123  0897                     	;# 
  3124  0898                     	;# 
  3125  0899                     	;# 
  3126  0D8C                     	;# 
  3127  0D8C                     	;# 
  3128  0D8D                     	;# 
  3129  0D8E                     	;# 
  3130  0D8F                     	;# 
  3131  0D8F                     	;# 
  3132  0D90                     	;# 
  3133  0D91                     	;# 
  3134  0D92                     	;# 
  3135  0D92                     	;# 
  3136  0D93                     	;# 
  3137  0D94                     	;# 
  3138  0D95                     	;# 
  3139  0D95                     	;# 
  3140  0D96                     	;# 
  3141  0D97                     	;# 
  3142  0D98                     	;# 
  3143  0D99                     	;# 
  3144  0D9A                     	;# 
  3145  0D9B                     	;# 
  3146  0D9C                     	;# 
  3147  0D9D                     	;# 
  3148  0D9E                     	;# 
  3149  0D9E                     	;# 
  3150  0D9F                     	;# 
  3151  0DA0                     	;# 
  3152  0DA1                     	;# 
  3153  0DA1                     	;# 
  3154  0DA2                     	;# 
  3155  0DA3                     	;# 
  3156  0DA4                     	;# 
  3157  0DA4                     	;# 
  3158  0DA5                     	;# 
  3159  0DA6                     	;# 
  3160  0DA7                     	;# 
  3161  0DA7                     	;# 
  3162  0DA8                     	;# 
  3163  0DA9                     	;# 
  3164  0DAA                     	;# 
  3165  0DAB                     	;# 
  3166  0DAC                     	;# 
  3167  0DAD                     	;# 
  3168  0DAE                     	;# 
  3169  0DAF                     	;# 
  3170  0E0F                     	;# 
  3171  0E10                     	;# 
  3172  0E11                     	;# 
  3173  0E12                     	;# 
  3174  0E13                     	;# 
  3175  0E14                     	;# 
  3176  0E15                     	;# 
  3177  0E16                     	;# 
  3178  0E17                     	;# 
  3179  0E18                     	;# 
  3180  0E19                     	;# 
  3181  0E1A                     	;# 
  3182  0E1B                     	;# 
  3183  0E1C                     	;# 
  3184  0E1D                     	;# 
  3185  0E1E                     	;# 
  3186  0E1F                     	;# 
  3187  0E20                     	;# 
  3188  0E21                     	;# 
  3189  0E22                     	;# 
  3190  0E23                     	;# 
  3191  0E24                     	;# 
  3192  0E25                     	;# 
  3193  0E26                     	;# 
  3194  0E27                     	;# 
  3195  0E28                     	;# 
  3196  0E29                     	;# 
  3197  0E2A                     	;# 
  3198  0E2B                     	;# 
  3199  0E2C                     	;# 
  3200  0E2D                     	;# 
  3201  0E2E                     	;# 
  3202  0E90                     	;# 
  3203  0E91                     	;# 
  3204  0E92                     	;# 
  3205  0E94                     	;# 
  3206  0E95                     	;# 
  3207  0EA0                     	;# 
  3208  0EA1                     	;# 
  3209  0EA2                     	;# 
  3210  0EA3                     	;# 
  3211  0EA4                     	;# 
  3212  0EA5                     	;# 
  3213  0F0F                     	;# 
  3214  0F10                     	;# 
  3215  0F11                     	;# 
  3216  0F12                     	;# 
  3217  0F13                     	;# 
  3218  0F14                     	;# 
  3219  0F15                     	;# 
  3220  0F16                     	;# 
  3221  0F17                     	;# 
  3222  0F18                     	;# 
  3223  0F19                     	;# 
  3224  0F1A                     	;# 
  3225  0F1B                     	;# 
  3226  0F1C                     	;# 
  3227  0F1D                     	;# 
  3228  0F1E                     	;# 
  3229  0F1F                     	;# 
  3230  0F20                     	;# 
  3231  0F21                     	;# 
  3232  0F22                     	;# 
  3233  0F23                     	;# 
  3234  0FE4                     	;# 
  3235  0FE5                     	;# 
  3236  0FE6                     	;# 
  3237  0FE7                     	;# 
  3238  0FE8                     	;# 
  3239  0FE9                     	;# 
  3240  0FEA                     	;# 
  3241  0FEB                     	;# 
  3242  0FED                     	;# 
  3243  0FEE                     	;# 
  3244  0FEF                     	;# 
  3245                           
  3246                           	psect	stringtext
  3247  0800                     __pstringtext:	
  3248  0800                     _cie:	
  3249  0800  34FF               	retlw	255
  3250  0801  34FF               	retlw	255
  3251  0802  34FE               	retlw	254
  3252  0803  34FE               	retlw	254
  3253  0804  34FD               	retlw	253
  3254  0805  34FD               	retlw	253
  3255  0806  34FC               	retlw	252
  3256  0807  34FC               	retlw	252
  3257  0808  34FB               	retlw	251
  3258  0809  34FB               	retlw	251
  3259  080A  34FB               	retlw	251
  3260  080B  34FA               	retlw	250
  3261  080C  34FA               	retlw	250
  3262  080D  34F9               	retlw	249
  3263  080E  34F9               	retlw	249
  3264  080F  34F8               	retlw	248
  3265  0810  34F8               	retlw	248
  3266  0811  34F7               	retlw	247
  3267  0812  34F7               	retlw	247
  3268  0813  34F7               	retlw	247
  3269  0814  34F6               	retlw	246
  3270  0815  34F6               	retlw	246
  3271  0816  34F5               	retlw	245
  3272  0817  34F5               	retlw	245
  3273  0818  34F4               	retlw	244
  3274  0819  34F4               	retlw	244
  3275  081A  34F3               	retlw	243
  3276  081B  34F3               	retlw	243
  3277  081C  34F2               	retlw	242
  3278  081D  34F2               	retlw	242
  3279  081E  34F1               	retlw	241
  3280  081F  34F0               	retlw	240
  3281  0820  34F0               	retlw	240
  3282  0821  34EF               	retlw	239
  3283  0822  34EE               	retlw	238
  3284  0823  34EE               	retlw	238
  3285  0824  34ED               	retlw	237
  3286  0825  34EC               	retlw	236
  3287  0826  34EC               	retlw	236
  3288  0827  34EB               	retlw	235
  3289  0828  34EA               	retlw	234
  3290  0829  34E9               	retlw	233
  3291  082A  34E9               	retlw	233
  3292  082B  34E8               	retlw	232
  3293  082C  34E7               	retlw	231
  3294  082D  34E6               	retlw	230
  3295  082E  34E5               	retlw	229
  3296  082F  34E4               	retlw	228
  3297  0830  34E3               	retlw	227
  3298  0831  34E2               	retlw	226
  3299  0832  34E1               	retlw	225
  3300  0833  34E0               	retlw	224
  3301  0834  34DF               	retlw	223
  3302  0835  34DE               	retlw	222
  3303  0836  34DD               	retlw	221
  3304  0837  34DC               	retlw	220
  3305  0838  34DB               	retlw	219
  3306  0839  34DA               	retlw	218
  3307  083A  34D9               	retlw	217
  3308  083B  34D8               	retlw	216
  3309  083C  34D7               	retlw	215
  3310  083D  34D5               	retlw	213
  3311  083E  34D4               	retlw	212
  3312  083F  34D3               	retlw	211
  3313  0840  34D2               	retlw	210
  3314  0841  34D0               	retlw	208
  3315  0842  34CF               	retlw	207
  3316  0843  34CD               	retlw	205
  3317  0844  34CC               	retlw	204
  3318  0845  34CB               	retlw	203
  3319  0846  34C9               	retlw	201
  3320  0847  34C8               	retlw	200
  3321  0848  34C6               	retlw	198
  3322  0849  34C5               	retlw	197
  3323  084A  34C3               	retlw	195
  3324  084B  34C2               	retlw	194
  3325  084C  34C0               	retlw	192
  3326  084D  34BE               	retlw	190
  3327  084E  34BD               	retlw	189
  3328  084F  34BB               	retlw	187
  3329  0850  34B9               	retlw	185
  3330  0851  34B8               	retlw	184
  3331  0852  34B6               	retlw	182
  3332  0853  34B4               	retlw	180
  3333  0854  34B2               	retlw	178
  3334  0855  34B0               	retlw	176
  3335  0856  34AE               	retlw	174
  3336  0857  34AC               	retlw	172
  3337  0858  34AB               	retlw	171
  3338  0859  34A9               	retlw	169
  3339  085A  34A7               	retlw	167
  3340  085B  34A5               	retlw	165
  3341  085C  34A2               	retlw	162
  3342  085D  34A0               	retlw	160
  3343  085E  349E               	retlw	158
  3344  085F  349C               	retlw	156
  3345  0860  349A               	retlw	154
  3346  0861  3498               	retlw	152
  3347  0862  3495               	retlw	149
  3348  0863  3493               	retlw	147
  3349  0864  3491               	retlw	145
  3350  0865  348E               	retlw	142
  3351  0866  348C               	retlw	140
  3352  0867  3489               	retlw	137
  3353  0868  3487               	retlw	135
  3354  0869  3484               	retlw	132
  3355  086A  3482               	retlw	130
  3356  086B  347F               	retlw	127
  3357  086C  347D               	retlw	125
  3358  086D  347A               	retlw	122
  3359  086E  3477               	retlw	119
  3360  086F  3475               	retlw	117
  3361  0870  3472               	retlw	114
  3362  0871  346F               	retlw	111
  3363  0872  346C               	retlw	108
  3364  0873  346A               	retlw	106
  3365  0874  3467               	retlw	103
  3366  0875  3464               	retlw	100
  3367  0876  3461               	retlw	97
  3368  0877  345E               	retlw	94
  3369  0878  345B               	retlw	91
  3370  0879  3458               	retlw	88
  3371  087A  3454               	retlw	84
  3372  087B  3451               	retlw	81
  3373  087C  344E               	retlw	78
  3374  087D  344B               	retlw	75
  3375  087E  3448               	retlw	72
  3376  087F  3444               	retlw	68
  3377  0880  3441               	retlw	65
  3378  0881  343D               	retlw	61
  3379  0882  343A               	retlw	58
  3380  0883  3437               	retlw	55
  3381  0884  3433               	retlw	51
  3382  0885  342F               	retlw	47
  3383  0886  342C               	retlw	44
  3384  0887  3428               	retlw	40
  3385  0888  3425               	retlw	37
  3386  0889  3421               	retlw	33
  3387  088A  341D               	retlw	29
  3388  088B  3419               	retlw	25
  3389  088C  3415               	retlw	21
  3390  088D  3412               	retlw	18
  3391  088E  340E               	retlw	14
  3392  088F  340A               	retlw	10
  3393  0890  3406               	retlw	6
  3394  0891  3401               	retlw	1
  3395  0892  34FD               	retlw	253
  3396  0893  34F9               	retlw	249
  3397  0894  34F5               	retlw	245
  3398  0895  34F1               	retlw	241
  3399  0896  34EC               	retlw	236
  3400  0897  34E8               	retlw	232
  3401  0898  34E4               	retlw	228
  3402  0899  34DF               	retlw	223
  3403  089A  34DB               	retlw	219
  3404  089B  34D6               	retlw	214
  3405  089C  34D2               	retlw	210
  3406  089D  34CD               	retlw	205
  3407  089E  34C8               	retlw	200
  3408  089F  34C4               	retlw	196
  3409  08A0  34BF               	retlw	191
  3410  08A1  34BA               	retlw	186
  3411  08A2  34B5               	retlw	181
  3412  08A3  34B0               	retlw	176
  3413  08A4  34AB               	retlw	171
  3414  08A5  34A6               	retlw	166
  3415  08A6  34A1               	retlw	161
  3416  08A7  349C               	retlw	156
  3417  08A8  3497               	retlw	151
  3418  08A9  3492               	retlw	146
  3419  08AA  348D               	retlw	141
  3420  08AB  3487               	retlw	135
  3421  08AC  3482               	retlw	130
  3422  08AD  347D               	retlw	125
  3423  08AE  3477               	retlw	119
  3424  08AF  3472               	retlw	114
  3425  08B0  346C               	retlw	108
  3426  08B1  3467               	retlw	103
  3427  08B2  3461               	retlw	97
  3428  08B3  345B               	retlw	91
  3429  08B4  3456               	retlw	86
  3430  08B5  3450               	retlw	80
  3431  08B6  344A               	retlw	74
  3432  08B7  3444               	retlw	68
  3433  08B8  343E               	retlw	62
  3434  08B9  3438               	retlw	56
  3435  08BA  3432               	retlw	50
  3436  08BB  342C               	retlw	44
  3437  08BC  3426               	retlw	38
  3438  08BD  341F               	retlw	31
  3439  08BE  3419               	retlw	25
  3440  08BF  3413               	retlw	19
  3441  08C0  340C               	retlw	12
  3442  08C1  3406               	retlw	6
  3443  08C2  34FF               	retlw	255
  3444  08C3  34F9               	retlw	249
  3445  08C4  34F2               	retlw	242
  3446  08C5  34EB               	retlw	235
  3447  08C6  34E5               	retlw	229
  3448  08C7  34DE               	retlw	222
  3449  08C8  34D7               	retlw	215
  3450  08C9  34D0               	retlw	208
  3451  08CA  34C9               	retlw	201
  3452  08CB  34C2               	retlw	194
  3453  08CC  34BB               	retlw	187
  3454  08CD  34B4               	retlw	180
  3455  08CE  34AD               	retlw	173
  3456  08CF  34A6               	retlw	166
  3457  08D0  349E               	retlw	158
  3458  08D1  3497               	retlw	151
  3459  08D2  348F               	retlw	143
  3460  08D3  3488               	retlw	136
  3461  08D4  3480               	retlw	128
  3462  08D5  3479               	retlw	121
  3463  08D6  3471               	retlw	113
  3464  08D7  3469               	retlw	105
  3465  08D8  3462               	retlw	98
  3466  08D9  345A               	retlw	90
  3467  08DA  3452               	retlw	82
  3468  08DB  344A               	retlw	74
  3469  08DC  3442               	retlw	66
  3470  08DD  343A               	retlw	58
  3471  08DE  3432               	retlw	50
  3472  08DF  3429               	retlw	41
  3473  08E0  3421               	retlw	33
  3474  08E1  3419               	retlw	25
  3475  08E2  3410               	retlw	16
  3476  08E3  3408               	retlw	8
  3477  08E4  34FF               	retlw	255
  3478  08E5  34F7               	retlw	247
  3479  08E6  34EE               	retlw	238
  3480  08E7  34E5               	retlw	229
  3481  08E8  34DD               	retlw	221
  3482  08E9  34D4               	retlw	212
  3483  08EA  34CB               	retlw	203
  3484  08EB  34C2               	retlw	194
  3485  08EC  34B9               	retlw	185
  3486  08ED  34B0               	retlw	176
  3487  08EE  34A6               	retlw	166
  3488  08EF  349D               	retlw	157
  3489  08F0  3494               	retlw	148
  3490  08F1  348A               	retlw	138
  3491  08F2  3481               	retlw	129
  3492  08F3  3478               	retlw	120
  3493  08F4  346E               	retlw	110
  3494  08F5  3464               	retlw	100
  3495  08F6  345B               	retlw	91
  3496  08F7  3451               	retlw	81
  3497  08F8  3447               	retlw	71
  3498  08F9  343D               	retlw	61
  3499  08FA  3433               	retlw	51
  3500  08FB  3429               	retlw	41
  3501  08FC  341F               	retlw	31
  3502  08FD  3415               	retlw	21
  3503  08FE  340A               	retlw	10
  3504  08FF  3400               	retlw	0
  3505  0900                     __end_of_cie:	
  3506  0010                     _PIR1bits	set	16
  3507  001B                     _PR2	set	27
  3508  001E                     _T2CLKCON	set	30
  3509  001C                     _T2CON	set	28
  3510  001C                     _T2CONbits	set	28
  3511  001D                     _T2HLT	set	29
  3512  001D                     _T2HLTbits	set	29
  3513  001B                     _T2PR	set	27
  3514  001F                     _T2RST	set	31
  3515  001F                     _T2RSTbits	set	31
  3516  001A                     _T2TMR	set	26
  3517  001A                     _TMR2	set	26
  3518  005F                     _GIE	set	95
  3519  0095                     _OPTION_REGbits	set	149
  3520  0099                     _OSCCON	set	153
  3521  0098                     _OSCTUNE	set	152
  3522  008C                     _TRISA	set	140
  3523  008E                     _TRISC	set	142
  3524  010C                     _LATA	set	268
  3525  010E                     _LATC	set	270
  3526  011C                     _ZCD1CON	set	284
  3527  011C                     _ZCD1CONbits	set	284
  3528  018C                     _ANSELA	set	396
  3529  018E                     _ANSELC	set	398
  3530  0215                     _SSP1CON1	set	533
  3531  0215                     _SSP1CON1bits	set	533
  3532  0217                     _SSP1CON3	set	535
  3533  0214                     _SSP1STAT	set	532
  3534  0214                     _SSP1STATbits	set	532
  3535  0211                     _SSPBUF	set	529
  3536  020C                     _WPUA	set	524
  3537  020E                     _WPUC	set	526
  3538  029E                     _CCPTMRSbits	set	670
  3539  030E                     _SLRCONC	set	782
  3540  2074                     _HIDC4	set	8308
  3541  2075                     _HIDC5	set	8309
  3542  0619                     _PWM3CON	set	1561
  3543  0618                     _PWM3DCH	set	1560
  3544  0617                     _PWM3DCL	set	1559
  3545  061C                     _PWM4CON	set	1564
  3546  061B                     _PWM4DCH	set	1563
  3547  061A                     _PWM4DCL	set	1562
  3548  0E0F                     _PPSLOCK	set	3599
  3549  0E0F                     _PPSLOCKbits	set	3599
  3550  0E20                     _SSPCLKPPS	set	3616
  3551  0E21                     _SSPDATPPS	set	3617
  3552  0E22                     _SSPSSPPS	set	3618
  3553  0E18                     _T2PPS	set	3608
  3554  0E90                     _RA0PPS	set	3728
  3555  0EA4                     _RC4PPS	set	3748
  3556  0EA5                     _RC5PPS	set	3749
  3557                           
  3558                           ; #config settings
  3559  0000                     
  3560                           	psect	cinit
  3561  07FD                     start_initialization:	
  3562  07FD                     __initialization:	
  3563  07FD                     end_of_initialization:	
  3564                           ;End of C runtime variable initialization code
  3565                           
  3566  07FD                     __end_of__initialization:	
  3567  07FD  0020               	movlb	0
  3568  07FE  3187  2F90         	ljmp	_main	;jump to C main() function
  3569                           
  3570                           	psect	cstackCOMMON
  3571  0070                     __pcstackCOMMON:	
  3572  0070                     ?_TMR2_Start:	
  3573  0070                     ??_TMR2_Start:	
  3574                           ; 1 bytes @ 0x0
  3575                           
  3576  0070                     ?_PIN_MANAGER_Initialize:	
  3577                           ; 1 bytes @ 0x0
  3578                           
  3579  0070                     ??_PIN_MANAGER_Initialize:	
  3580                           ; 1 bytes @ 0x0
  3581                           
  3582  0070                     ?_OSCILLATOR_Initialize:	
  3583                           ; 1 bytes @ 0x0
  3584                           
  3585  0070                     ??_OSCILLATOR_Initialize:	
  3586                           ; 1 bytes @ 0x0
  3587                           
  3588  0070                     ?_SPI_Initialize:	
  3589                           ; 1 bytes @ 0x0
  3590                           
  3591  0070                     ??_SPI_Initialize:	
  3592                           ; 1 bytes @ 0x0
  3593                           
  3594  0070                     ?_PWM4_Initialize:	
  3595                           ; 1 bytes @ 0x0
  3596                           
  3597  0070                     ??_PWM4_Initialize:	
  3598                           ; 1 bytes @ 0x0
  3599                           
  3600  0070                     ?_PWM3_Initialize:	
  3601                           ; 1 bytes @ 0x0
  3602                           
  3603  0070                     ??_PWM3_Initialize:	
  3604                           ; 1 bytes @ 0x0
  3605                           
  3606  0070                     ?_PWM3_LoadDutyValue:	
  3607                           ; 1 bytes @ 0x0
  3608                           
  3609  0070                     ?_ZCD_Initialize:	
  3610                           ; 1 bytes @ 0x0
  3611                           
  3612  0070                     ??_ZCD_Initialize:	
  3613                           ; 1 bytes @ 0x0
  3614                           
  3615  0070                     ?_TMR2_Initialize:	
  3616                           ; 1 bytes @ 0x0
  3617                           
  3618  0070                     ??_TMR2_Initialize:	
  3619                           ; 1 bytes @ 0x0
  3620                           
  3621  0070                     ?_SYSTEM_Initialize:	
  3622                           ; 1 bytes @ 0x0
  3623                           
  3624  0070                     ?_PWM4_LoadDutyValue:	
  3625                           ; 1 bytes @ 0x0
  3626                           
  3627  0070                     ?_SPI_Exchange8bit:	
  3628                           ; 1 bytes @ 0x0
  3629                           
  3630  0070                     ??_SPI_Exchange8bit:	
  3631                           ; 1 bytes @ 0x0
  3632                           
  3633  0070                     ?_main:	
  3634                           ; 1 bytes @ 0x0
  3635                           
  3636  0070                     PIN_MANAGER_Initialize@state:	
  3637                           ; 1 bytes @ 0x0
  3638                           
  3639  0070                     PWM3_LoadDutyValue@dutyValue:	
  3640                           ; 1 bytes @ 0x0
  3641                           
  3642  0070                     PWM4_LoadDutyValue@dutyValue:	
  3643                           ; 2 bytes @ 0x0
  3644                           
  3645                           
  3646                           ; 2 bytes @ 0x0
  3647  0070                     	ds	1
  3648  0071                     ??_SYSTEM_Initialize:	
  3649  0071                     SPI_Exchange8bit@dummyRead:	
  3650                           ; 1 bytes @ 0x1
  3651                           
  3652                           
  3653                           ; 1 bytes @ 0x1
  3654  0071                     	ds	1
  3655  0072                     ??_PWM3_LoadDutyValue:	
  3656  0072                     ??_PWM4_LoadDutyValue:	
  3657                           ; 1 bytes @ 0x2
  3658                           
  3659  0072                     SPI_Exchange8bit@data:	
  3660                           ; 1 bytes @ 0x2
  3661                           
  3662                           
  3663                           ; 1 bytes @ 0x2
  3664  0072                     	ds	2
  3665  0074                     ??_main:	
  3666                           
  3667                           ; 1 bytes @ 0x4
  3668  0074                     	ds	2
  3669  0076                     main@readDummy:	
  3670                           
  3671                           ; 1 bytes @ 0x6
  3672  0076                     	ds	1
  3673  0077                     main@addr:	
  3674                           
  3675                           ; 1 bytes @ 0x7
  3676  0077                     	ds	1
  3677  0078                     main@data:	
  3678                           
  3679                           ; 1 bytes @ 0x8
  3680  0078                     	ds	1
  3681  0079                     main@pwm3:	
  3682                           
  3683                           ; 1 bytes @ 0x9
  3684  0079                     	ds	1
  3685  007A                     main@pwm4:	
  3686                           
  3687                           ; 1 bytes @ 0xA
  3688  007A                     	ds	1
  3689                           
  3690                           	psect	maintext
  3691  0790                     __pmaintext:	
  3692 ;;
  3693 ;;Main: autosize = 0, tempsize = 2, incstack = 0, save=0
  3694 ;;
  3695 ;; *************** function _main *****************
  3696 ;; Defined at:
  3697 ;;		line 52 in file "main.c"
  3698 ;; Parameters:    Size  Location     Type
  3699 ;;		None
  3700 ;; Auto vars:     Size  Location     Type
  3701 ;;  pwm4            1   10[COMMON] unsigned char 
  3702 ;;  pwm3            1    9[COMMON] unsigned char 
  3703 ;;  data            1    8[COMMON] unsigned char 
  3704 ;;  addr            1    7[COMMON] unsigned char 
  3705 ;;  readDummy       1    6[COMMON] unsigned char 
  3706 ;; Return value:  Size  Location     Type
  3707 ;;                  1    wreg      void 
  3708 ;; Registers used:
  3709 ;;		wreg, fsr0l, fsr0h, status,2, status,0, pclath, cstack
  3710 ;; Tracked objects:
  3711 ;;		On entry : B1F/0
  3712 ;;		On exit  : 0/0
  3713 ;;		Unchanged: 0/0
  3714 ;; Data sizes:     COMMON   BANK0   BANK1   BANK2   BANK3   BANK4   BANK5   BANK6
  3715 ;;      Params:         0       0       0       0       0       0       0       0
  3716 ;;      Locals:         5       0       0       0       0       0       0       0
  3717 ;;      Temps:          2       0       0       0       0       0       0       0
  3718 ;;      Totals:         7       0       0       0       0       0       0       0
  3719 ;;Total ram usage:        7 bytes
  3720 ;; Hardware stack levels required when called:    3
  3721 ;; This function calls:
  3722 ;;		_PWM3_LoadDutyValue
  3723 ;;		_PWM4_LoadDutyValue
  3724 ;;		_SPI_Exchange8bit
  3725 ;;		_SYSTEM_Initialize
  3726 ;; This function is called by:
  3727 ;;		Startup code after reset
  3728 ;; This function uses a non-reentrant model
  3729 ;;
  3730                           
  3731                           
  3732                           ;psect for function _main
  3733  0790                     _main:	
  3734                           
  3735                           ;main.c: 55: SYSTEM_Initialize();
  3736                           
  3737                           ;incstack = 0
  3738                           ; Regs used in _main: [wreg-fsr0h+status,2+status,0+pclath+cstack]
  3739  0790  3187  2714  3187   	fcall	_SYSTEM_Initialize
  3740                           
  3741                           ;main.c: 56: HIDC5 = 1;
  3742  0793  0028               	movlb	8	; select bank8
  3743  0794  168E               	bsf	14,5	;volatile
  3744                           
  3745                           ;main.c: 57: HIDC4 = 1;
  3746  0795  160E               	bsf	14,4	;volatile
  3747                           
  3748                           ;main.c: 72: uint8_t readDummy = 0;
  3749  0796  01F6               	clrf	main@readDummy
  3750                           
  3751                           ;main.c: 73: uint8_t addr = 0;
  3752  0797  01F7               	clrf	main@addr
  3753                           
  3754                           ;main.c: 74: uint8_t data = 0;
  3755  0798  01F8               	clrf	main@data
  3756                           
  3757                           ;main.c: 75: uint8_t pwm3 = 0;
  3758  0799  01F9               	clrf	main@pwm3
  3759                           
  3760                           ;main.c: 76: uint8_t pwm4 = 0;
  3761  079A  01FA               	clrf	main@pwm4
  3762                           
  3763                           ;main.c: 77: PWM3_LoadDutyValue(cie[pwm3]);
  3764  079B  0879               	movf	main@pwm3,w
  3765  079C  3E00               	addlw	low (_cie| (0+32768))
  3766  079D  0084               	movwf	4
  3767  079E  3088               	movlw	high (_cie| (0+32768))
  3768  079F  1803               	skipnc
  3769  07A0  3E01               	addlw	1
  3770  07A1  0085               	movwf	5
  3771  07A2  0800               	movf	0,w	;code access
  3772  07A3  00F4               	movwf	??_main
  3773  07A4  01F5               	clrf	??_main+1
  3774  07A5  0874               	movf	??_main,w
  3775  07A6  00F0               	movwf	PWM3_LoadDutyValue@dutyValue
  3776  07A7  0875               	movf	??_main+1,w
  3777  07A8  00F1               	movwf	PWM3_LoadDutyValue@dutyValue+1
  3778  07A9  3187  2729  3187   	fcall	_PWM3_LoadDutyValue
  3779                           
  3780                           ;main.c: 78: PWM4_LoadDutyValue(cie[pwm4]);
  3781  07AC  087A               	movf	main@pwm4,w
  3782  07AD  3E00               	addlw	low (_cie| (0+32768))
  3783  07AE  0084               	movwf	4
  3784  07AF  3088               	movlw	high (_cie| (0+32768))
  3785  07B0  1803               	skipnc
  3786  07B1  3E01               	addlw	1
  3787  07B2  0085               	movwf	5
  3788  07B3  0800               	movf	0,w	;code access
  3789  07B4  00F4               	movwf	??_main
  3790  07B5  01F5               	clrf	??_main+1
  3791  07B6  0874               	movf	??_main,w
  3792  07B7  00F0               	movwf	PWM4_LoadDutyValue@dutyValue
  3793  07B8  0875               	movf	??_main+1,w
  3794  07B9  00F1               	movwf	PWM4_LoadDutyValue@dutyValue+1
  3795  07BA  3187  273F  3187   	fcall	_PWM4_LoadDutyValue
  3796  07BD  2FD3               	goto	l849
  3797  07BE                     l855:	
  3798                           
  3799                           ;main.c: 86: pwm3 = data;
  3800  07BE  0878               	movf	main@data,w
  3801  07BF  00F4               	movwf	??_main
  3802  07C0  0874               	movf	??_main,w
  3803  07C1  00F9               	movwf	main@pwm3
  3804                           
  3805                           ;main.c: 87: PWM3_LoadDutyValue(cie[pwm3]);
  3806  07C2  0879               	movf	main@pwm3,w
  3807  07C3  3E00               	addlw	low (_cie| (0+32768))
  3808  07C4  0084               	movwf	4
  3809  07C5  3088               	movlw	high (_cie| (0+32768))
  3810  07C6  1803               	skipnc
  3811  07C7  3E01               	addlw	1
  3812  07C8  0085               	movwf	5
  3813  07C9  0800               	movf	0,w	;code access
  3814  07CA  00F4               	movwf	??_main
  3815  07CB  01F5               	clrf	??_main+1
  3816  07CC  0874               	movf	??_main,w
  3817  07CD  00F0               	movwf	PWM3_LoadDutyValue@dutyValue
  3818  07CE  0875               	movf	??_main+1,w
  3819  07CF  00F1               	movwf	PWM3_LoadDutyValue@dutyValue+1
  3820  07D0  3187  2729  3187   	fcall	_PWM3_LoadDutyValue
  3821  07D3                     l849:	
  3822                           ;main.c: 79: while (1)
  3823                           
  3824                           ;main.c: 88: }
  3825                           
  3826                           
  3827                           ;main.c: 80: {
  3828                           ;main.c: 82: addr = SPI_Exchange8bit(readDummy);
  3829  07D3  0876               	movf	main@readDummy,w
  3830  07D4  3186  26F8  3187   	fcall	_SPI_Exchange8bit
  3831  07D7  00F4               	movwf	??_main
  3832  07D8  0874               	movf	??_main,w
  3833  07D9  00F7               	movwf	main@addr
  3834                           
  3835                           ;main.c: 83: data = SPI_Exchange8bit(readDummy);
  3836  07DA  0876               	movf	main@readDummy,w
  3837  07DB  3186  26F8  3187   	fcall	_SPI_Exchange8bit
  3838  07DE  00F4               	movwf	??_main
  3839  07DF  0874               	movf	??_main,w
  3840  07E0  00F8               	movwf	main@data
  3841                           
  3842                           ;main.c: 85: if (addr==0) {
  3843  07E1  0877               	movf	main@addr,w
  3844  07E2  1903               	btfsc	3,2
  3845  07E3  2FBE               	goto	l855
  3846                           
  3847                           ;main.c: 89: else if (addr==1) {
  3848  07E4  0377               	decf	main@addr,w
  3849  07E5  1D03               	btfss	3,2
  3850  07E6  2FD3               	goto	l849
  3851                           
  3852                           ;main.c: 90: pwm4 = data;
  3853  07E7  0878               	movf	main@data,w
  3854  07E8  00F4               	movwf	??_main
  3855  07E9  0874               	movf	??_main,w
  3856  07EA  00FA               	movwf	main@pwm4
  3857                           
  3858                           ;main.c: 91: PWM4_LoadDutyValue(cie[pwm4]);
  3859  07EB  087A               	movf	main@pwm4,w
  3860  07EC  3E00               	addlw	low (_cie| (0+32768))
  3861  07ED  0084               	movwf	4
  3862  07EE  3088               	movlw	high (_cie| (0+32768))
  3863  07EF  1803               	skipnc
  3864  07F0  3E01               	addlw	1
  3865  07F1  0085               	movwf	5
  3866  07F2  0800               	movf	0,w	;code access
  3867  07F3  00F4               	movwf	??_main
  3868  07F4  01F5               	clrf	??_main+1
  3869  07F5  0874               	movf	??_main,w
  3870  07F6  00F0               	movwf	PWM4_LoadDutyValue@dutyValue
  3871  07F7  0875               	movf	??_main+1,w
  3872  07F8  00F1               	movwf	PWM4_LoadDutyValue@dutyValue+1
  3873  07F9  3187  273F  3187   	fcall	_PWM4_LoadDutyValue
  3874  07FC  2FD3               	goto	l849
  3875  07FD                     __end_of_main:	
  3876                           
  3877                           	psect	text1
  3878  0714                     __ptext1:	
  3879 ;; *************** function _SYSTEM_Initialize *****************
  3880 ;; Defined at:
  3881 ;;		line 74 in file "mcc_generated_files/mcc.c"
  3882 ;; Parameters:    Size  Location     Type
  3883 ;;		None
  3884 ;; Auto vars:     Size  Location     Type
  3885 ;;		None
  3886 ;; Return value:  Size  Location     Type
  3887 ;;                  1    wreg      void 
  3888 ;; Registers used:
  3889 ;;		wreg, status,2, status,0, pclath, cstack
  3890 ;; Tracked objects:
  3891 ;;		On entry : 0/0
  3892 ;;		On exit  : 0/0
  3893 ;;		Unchanged: 0/0
  3894 ;; Data sizes:     COMMON   BANK0   BANK1   BANK2   BANK3   BANK4   BANK5   BANK6
  3895 ;;      Params:         0       0       0       0       0       0       0       0
  3896 ;;      Locals:         0       0       0       0       0       0       0       0
  3897 ;;      Temps:          0       0       0       0       0       0       0       0
  3898 ;;      Totals:         0       0       0       0       0       0       0       0
  3899 ;;Total ram usage:        0 bytes
  3900 ;; Hardware stack levels used:    1
  3901 ;; Hardware stack levels required when called:    2
  3902 ;; This function calls:
  3903 ;;		_OSCILLATOR_Initialize
  3904 ;;		_PIN_MANAGER_Initialize
  3905 ;;		_PWM3_Initialize
  3906 ;;		_PWM4_Initialize
  3907 ;;		_SPI_Initialize
  3908 ;;		_TMR2_Initialize
  3909 ;;		_ZCD_Initialize
  3910 ;; This function is called by:
  3911 ;;		_main
  3912 ;; This function uses a non-reentrant model
  3913 ;;
  3914                           
  3915                           
  3916                           ;psect for function _SYSTEM_Initialize
  3917  0714                     _SYSTEM_Initialize:	
  3918                           
  3919                           ;mcc.c: 77: PIN_MANAGER_Initialize();
  3920                           
  3921                           ;incstack = 0
  3922                           ; Regs used in _SYSTEM_Initialize: [wreg+status,2+status,0+pclath+cstack]
  3923  0714  3187  2755  3187   	fcall	_PIN_MANAGER_Initialize
  3924                           
  3925                           ;mcc.c: 78: OSCILLATOR_Initialize();
  3926  0717  3186  26D7  3187   	fcall	_OSCILLATOR_Initialize
  3927                           
  3928                           ;mcc.c: 79: SPI_Initialize();
  3929  071A  3186  26DC  3187   	fcall	_SPI_Initialize
  3930                           
  3931                           ;mcc.c: 80: PWM4_Initialize();
  3932  071D  3186  26E4  3187   	fcall	_PWM4_Initialize
  3933                           
  3934                           ;mcc.c: 81: PWM3_Initialize();
  3935  0720  3186  26ED  3187   	fcall	_PWM3_Initialize
  3936                           
  3937                           ;mcc.c: 82: TMR2_Initialize();
  3938  0723  3187  2705  3187   	fcall	_TMR2_Initialize
  3939                           
  3940                           ;mcc.c: 83: ZCD_Initialize();
  3941  0726  3186  26D3         	fcall	_ZCD_Initialize
  3942  0728  0008               	return
  3943  0729                     __end_of_SYSTEM_Initialize:	
  3944                           
  3945                           	psect	text2
  3946  06D3                     __ptext2:	
  3947 ;; *************** function _ZCD_Initialize *****************
  3948 ;; Defined at:
  3949 ;;		line 57 in file "mcc_generated_files/zcd.c"
  3950 ;; Parameters:    Size  Location     Type
  3951 ;;		None
  3952 ;; Auto vars:     Size  Location     Type
  3953 ;;		None
  3954 ;; Return value:  Size  Location     Type
  3955 ;;                  1    wreg      void 
  3956 ;; Registers used:
  3957 ;;		wreg
  3958 ;; Tracked objects:
  3959 ;;		On entry : 0/0
  3960 ;;		On exit  : 0/0
  3961 ;;		Unchanged: 0/0
  3962 ;; Data sizes:     COMMON   BANK0   BANK1   BANK2   BANK3   BANK4   BANK5   BANK6
  3963 ;;      Params:         0       0       0       0       0       0       0       0
  3964 ;;      Locals:         0       0       0       0       0       0       0       0
  3965 ;;      Temps:          0       0       0       0       0       0       0       0
  3966 ;;      Totals:         0       0       0       0       0       0       0       0
  3967 ;;Total ram usage:        0 bytes
  3968 ;; Hardware stack levels used:    1
  3969 ;; This function calls:
  3970 ;;		Nothing
  3971 ;; This function is called by:
  3972 ;;		_SYSTEM_Initialize
  3973 ;; This function uses a non-reentrant model
  3974 ;;
  3975                           
  3976                           
  3977                           ;psect for function _ZCD_Initialize
  3978  06D3                     _ZCD_Initialize:	
  3979                           
  3980                           ;zcd.c: 62: ZCD1CON = 0x80;
  3981                           
  3982                           ;incstack = 0
  3983                           ; Regs used in _ZCD_Initialize: [wreg]
  3984  06D3  3080               	movlw	128
  3985  06D4  0022               	movlb	2	; select bank2
  3986  06D5  009C               	movwf	28	;volatile
  3987  06D6  0008               	return
  3988  06D7                     __end_of_ZCD_Initialize:	
  3989                           
  3990                           	psect	text3
  3991  0705                     __ptext3:	
  3992 ;; *************** function _TMR2_Initialize *****************
  3993 ;; Defined at:
  3994 ;;		line 58 in file "mcc_generated_files/tmr2.c"
  3995 ;; Parameters:    Size  Location     Type
  3996 ;;		None
  3997 ;; Auto vars:     Size  Location     Type
  3998 ;;		None
  3999 ;; Return value:  Size  Location     Type
  4000 ;;                  1    wreg      void 
  4001 ;; Registers used:
  4002 ;;		wreg, status,2, status,0, pclath, cstack
  4003 ;; Tracked objects:
  4004 ;;		On entry : 0/0
  4005 ;;		On exit  : 0/0
  4006 ;;		Unchanged: 0/0
  4007 ;; Data sizes:     COMMON   BANK0   BANK1   BANK2   BANK3   BANK4   BANK5   BANK6
  4008 ;;      Params:         0       0       0       0       0       0       0       0
  4009 ;;      Locals:         0       0       0       0       0       0       0       0
  4010 ;;      Temps:          0       0       0       0       0       0       0       0
  4011 ;;      Totals:         0       0       0       0       0       0       0       0
  4012 ;;Total ram usage:        0 bytes
  4013 ;; Hardware stack levels used:    1
  4014 ;; Hardware stack levels required when called:    1
  4015 ;; This function calls:
  4016 ;;		_TMR2_Start
  4017 ;; This function is called by:
  4018 ;;		_SYSTEM_Initialize
  4019 ;; This function uses a non-reentrant model
  4020 ;;
  4021                           
  4022                           
  4023                           ;psect for function _TMR2_Initialize
  4024  0705                     _TMR2_Initialize:	
  4025                           
  4026                           ;tmr2.c: 63: T2CON = 0x00;
  4027                           
  4028                           ;incstack = 0
  4029                           ; Regs used in _TMR2_Initialize: [wreg+status,2+status,0+pclath+cstack]
  4030  0705  0020               	movlb	0	; select bank0
  4031  0706  019C               	clrf	28	;volatile
  4032                           
  4033                           ;tmr2.c: 66: T2CLKCON = 0x05;
  4034  0707  3005               	movlw	5
  4035  0708  009E               	movwf	30	;volatile
  4036                           
  4037                           ;tmr2.c: 69: T2HLT = 0x03;
  4038  0709  3003               	movlw	3
  4039  070A  009D               	movwf	29	;volatile
  4040                           
  4041                           ;tmr2.c: 72: T2RST = 0x08;
  4042  070B  3008               	movlw	8
  4043  070C  009F               	movwf	31	;volatile
  4044                           
  4045                           ;tmr2.c: 75: T2PR = 0xFF;
  4046  070D  30FF               	movlw	255
  4047  070E  009B               	movwf	27	;volatile
  4048                           
  4049                           ;tmr2.c: 78: T2TMR = 0x00;
  4050  070F  019A               	clrf	26	;volatile
  4051                           
  4052                           ;tmr2.c: 81: PIR1bits.TMR2IF = 0;
  4053  0710  1090               	bcf	16,1	;volatile
  4054                           
  4055                           ;tmr2.c: 84: TMR2_Start();
  4056  0711  3186  26D0         	fcall	_TMR2_Start
  4057  0713  0008               	return
  4058  0714                     __end_of_TMR2_Initialize:	
  4059                           
  4060                           	psect	text4
  4061  06D0                     __ptext4:	
  4062 ;; *************** function _TMR2_Start *****************
  4063 ;; Defined at:
  4064 ;;		line 99 in file "mcc_generated_files/tmr2.c"
  4065 ;; Parameters:    Size  Location     Type
  4066 ;;		None
  4067 ;; Auto vars:     Size  Location     Type
  4068 ;;		None
  4069 ;; Return value:  Size  Location     Type
  4070 ;;                  1    wreg      void 
  4071 ;; Registers used:
  4072 ;;		None
  4073 ;; Tracked objects:
  4074 ;;		On entry : 0/0
  4075 ;;		On exit  : 0/0
  4076 ;;		Unchanged: 0/0
  4077 ;; Data sizes:     COMMON   BANK0   BANK1   BANK2   BANK3   BANK4   BANK5   BANK6
  4078 ;;      Params:         0       0       0       0       0       0       0       0
  4079 ;;      Locals:         0       0       0       0       0       0       0       0
  4080 ;;      Temps:          0       0       0       0       0       0       0       0
  4081 ;;      Totals:         0       0       0       0       0       0       0       0
  4082 ;;Total ram usage:        0 bytes
  4083 ;; Hardware stack levels used:    1
  4084 ;; This function calls:
  4085 ;;		Nothing
  4086 ;; This function is called by:
  4087 ;;		_TMR2_Initialize
  4088 ;;		_TMR2_StartTimer
  4089 ;; This function uses a non-reentrant model
  4090 ;;
  4091                           
  4092                           
  4093                           ;psect for function _TMR2_Start
  4094  06D0                     _TMR2_Start:	
  4095                           
  4096                           ;tmr2.c: 102: T2CONbits.TMR2ON = 1;
  4097                           
  4098                           ;incstack = 0
  4099                           ; Regs used in _TMR2_Start: []
  4100  06D0  0020               	movlb	0	; select bank0
  4101  06D1  179C               	bsf	28,7	;volatile
  4102  06D2  0008               	return
  4103  06D3                     __end_of_TMR2_Start:	
  4104                           
  4105                           	psect	text5
  4106  06DC                     __ptext5:	
  4107 ;; *************** function _SPI_Initialize *****************
  4108 ;; Defined at:
  4109 ;;		line 64 in file "mcc_generated_files/spi.c"
  4110 ;; Parameters:    Size  Location     Type
  4111 ;;		None
  4112 ;; Auto vars:     Size  Location     Type
  4113 ;;		None
  4114 ;; Return value:  Size  Location     Type
  4115 ;;                  1    wreg      void 
  4116 ;; Registers used:
  4117 ;;		wreg, status,2
  4118 ;; Tracked objects:
  4119 ;;		On entry : 0/0
  4120 ;;		On exit  : 0/0
  4121 ;;		Unchanged: 0/0
  4122 ;; Data sizes:     COMMON   BANK0   BANK1   BANK2   BANK3   BANK4   BANK5   BANK6
  4123 ;;      Params:         0       0       0       0       0       0       0       0
  4124 ;;      Locals:         0       0       0       0       0       0       0       0
  4125 ;;      Temps:          0       0       0       0       0       0       0       0
  4126 ;;      Totals:         0       0       0       0       0       0       0       0
  4127 ;;Total ram usage:        0 bytes
  4128 ;; Hardware stack levels used:    1
  4129 ;; This function calls:
  4130 ;;		Nothing
  4131 ;; This function is called by:
  4132 ;;		_SYSTEM_Initialize
  4133 ;; This function uses a non-reentrant model
  4134 ;;
  4135                           
  4136                           
  4137                           ;psect for function _SPI_Initialize
  4138  06DC                     _SPI_Initialize:	
  4139                           
  4140                           ;spi.c: 69: SSP1STAT = 0x00;
  4141                           
  4142                           ;incstack = 0
  4143                           ; Regs used in _SPI_Initialize: [wreg+status,2]
  4144  06DC  0024               	movlb	4	; select bank4
  4145  06DD  0194               	clrf	20	;volatile
  4146                           
  4147                           ;spi.c: 72: SSP1CON1 = 0x24;
  4148  06DE  3024               	movlw	36
  4149  06DF  0095               	movwf	21	;volatile
  4150                           
  4151                           ;spi.c: 75: SSP1CON3 = 0x00;
  4152  06E0  0197               	clrf	23	;volatile
  4153                           
  4154                           ;spi.c: 77: SLRCONC = 0X00;
  4155  06E1  0026               	movlb	6	; select bank6
  4156  06E2  018E               	clrf	14	;volatile
  4157  06E3  0008               	return
  4158  06E4                     __end_of_SPI_Initialize:	
  4159                           
  4160                           	psect	text6
  4161  06E4                     __ptext6:	
  4162 ;; *************** function _PWM4_Initialize *****************
  4163 ;; Defined at:
  4164 ;;		line 57 in file "mcc_generated_files/pwm4.c"
  4165 ;; Parameters:    Size  Location     Type
  4166 ;;		None
  4167 ;; Auto vars:     Size  Location     Type
  4168 ;;		None
  4169 ;; Return value:  Size  Location     Type
  4170 ;;                  1    wreg      void 
  4171 ;; Registers used:
  4172 ;;		wreg, status,2, status,0
  4173 ;; Tracked objects:
  4174 ;;		On entry : 0/0
  4175 ;;		On exit  : 0/0
  4176 ;;		Unchanged: 0/0
  4177 ;; Data sizes:     COMMON   BANK0   BANK1   BANK2   BANK3   BANK4   BANK5   BANK6
  4178 ;;      Params:         0       0       0       0       0       0       0       0
  4179 ;;      Locals:         0       0       0       0       0       0       0       0
  4180 ;;      Temps:          0       0       0       0       0       0       0       0
  4181 ;;      Totals:         0       0       0       0       0       0       0       0
  4182 ;;Total ram usage:        0 bytes
  4183 ;; Hardware stack levels used:    1
  4184 ;; This function calls:
  4185 ;;		Nothing
  4186 ;; This function is called by:
  4187 ;;		_SYSTEM_Initialize
  4188 ;; This function uses a non-reentrant model
  4189 ;;
  4190                           
  4191                           
  4192                           ;psect for function _PWM4_Initialize
  4193  06E4                     _PWM4_Initialize:	
  4194                           
  4195                           ;pwm4.c: 61: PWM4CON = 0x90;
  4196                           
  4197                           ;incstack = 0
  4198                           ; Regs used in _PWM4_Initialize: [wreg+status,2+status,0]
  4199  06E4  3090               	movlw	144
  4200  06E5  002C               	movlb	12	; select bank12
  4201  06E6  009C               	movwf	28	;volatile
  4202                           
  4203                           ;pwm4.c: 64: PWM4DCH = 0x00;
  4204  06E7  019B               	clrf	27	;volatile
  4205                           
  4206                           ;pwm4.c: 67: PWM4DCL = 0x00;
  4207  06E8  019A               	clrf	26	;volatile
  4208                           
  4209                           ;pwm4.c: 71: CCPTMRSbits.P4TSEL = 0x0;
  4210  06E9  303F               	movlw	-193
  4211  06EA  0025               	movlb	5	; select bank5
  4212  06EB  059E               	andwf	30,f	;volatile
  4213  06EC  0008               	return
  4214  06ED                     __end_of_PWM4_Initialize:	
  4215                           
  4216                           	psect	text7
  4217  06ED                     __ptext7:	
  4218 ;; *************** function _PWM3_Initialize *****************
  4219 ;; Defined at:
  4220 ;;		line 57 in file "mcc_generated_files/pwm3.c"
  4221 ;; Parameters:    Size  Location     Type
  4222 ;;		None
  4223 ;; Auto vars:     Size  Location     Type
  4224 ;;		None
  4225 ;; Return value:  Size  Location     Type
  4226 ;;                  1    wreg      void 
  4227 ;; Registers used:
  4228 ;;		wreg, status,2, status,0
  4229 ;; Tracked objects:
  4230 ;;		On entry : 0/0
  4231 ;;		On exit  : 0/0
  4232 ;;		Unchanged: 0/0
  4233 ;; Data sizes:     COMMON   BANK0   BANK1   BANK2   BANK3   BANK4   BANK5   BANK6
  4234 ;;      Params:         0       0       0       0       0       0       0       0
  4235 ;;      Locals:         0       0       0       0       0       0       0       0
  4236 ;;      Temps:          0       0       0       0       0       0       0       0
  4237 ;;      Totals:         0       0       0       0       0       0       0       0
  4238 ;;Total ram usage:        0 bytes
  4239 ;; Hardware stack levels used:    1
  4240 ;; This function calls:
  4241 ;;		Nothing
  4242 ;; This function is called by:
  4243 ;;		_SYSTEM_Initialize
  4244 ;; This function uses a non-reentrant model
  4245 ;;
  4246                           
  4247                           
  4248                           ;psect for function _PWM3_Initialize
  4249  06ED                     _PWM3_Initialize:	
  4250                           
  4251                           ;pwm3.c: 61: PWM3CON = 0x90;
  4252                           
  4253                           ;incstack = 0
  4254                           ; Regs used in _PWM3_Initialize: [wreg+status,2+status,0]
  4255  06ED  3090               	movlw	144
  4256  06EE  002C               	movlb	12	; select bank12
  4257  06EF  0099               	movwf	25	;volatile
  4258                           
  4259                           ;pwm3.c: 64: PWM3DCH = 0x7F;
  4260  06F0  307F               	movlw	127
  4261  06F1  0098               	movwf	24	;volatile
  4262                           
  4263                           ;pwm3.c: 67: PWM3DCL = 0xC0;
  4264  06F2  30C0               	movlw	192
  4265  06F3  0097               	movwf	23	;volatile
  4266                           
  4267                           ;pwm3.c: 71: CCPTMRSbits.P3TSEL = 0x0;
  4268  06F4  30CF               	movlw	-49
  4269  06F5  0025               	movlb	5	; select bank5
  4270  06F6  059E               	andwf	30,f	;volatile
  4271  06F7  0008               	return
  4272  06F8                     __end_of_PWM3_Initialize:	
  4273                           
  4274                           	psect	text8
  4275  0755                     __ptext8:	
  4276 ;; *************** function _PIN_MANAGER_Initialize *****************
  4277 ;; Defined at:
  4278 ;;		line 50 in file "mcc_generated_files/pin_manager.c"
  4279 ;; Parameters:    Size  Location     Type
  4280 ;;		None
  4281 ;; Auto vars:     Size  Location     Type
  4282 ;;  state           1    0[COMMON] unsigned char 
  4283 ;; Return value:  Size  Location     Type
  4284 ;;                  1    wreg      void 
  4285 ;; Registers used:
  4286 ;;		wreg, status,2
  4287 ;; Tracked objects:
  4288 ;;		On entry : 0/0
  4289 ;;		On exit  : 0/0
  4290 ;;		Unchanged: 0/0
  4291 ;; Data sizes:     COMMON   BANK0   BANK1   BANK2   BANK3   BANK4   BANK5   BANK6
  4292 ;;      Params:         0       0       0       0       0       0       0       0
  4293 ;;      Locals:         1       0       0       0       0       0       0       0
  4294 ;;      Temps:          0       0       0       0       0       0       0       0
  4295 ;;      Totals:         1       0       0       0       0       0       0       0
  4296 ;;Total ram usage:        1 bytes
  4297 ;; Hardware stack levels used:    1
  4298 ;; This function calls:
  4299 ;;		Nothing
  4300 ;; This function is called by:
  4301 ;;		_SYSTEM_Initialize
  4302 ;; This function uses a non-reentrant model
  4303 ;;
  4304                           
  4305                           
  4306                           ;psect for function _PIN_MANAGER_Initialize
  4307  0755                     _PIN_MANAGER_Initialize:	
  4308                           
  4309                           ;pin_manager.c: 52: LATA = 0x0;
  4310                           
  4311                           ;incstack = 0
  4312                           ; Regs used in _PIN_MANAGER_Initialize: [wreg+status,2]
  4313  0755  0022               	movlb	2	; select bank2
  4314  0756  018C               	clrf	12	;volatile
  4315                           
  4316                           ;pin_manager.c: 53: LATC = 0x0;
  4317  0757  018E               	clrf	14	;volatile
  4318                           
  4319                           ;pin_manager.c: 54: WPUA = 0x3F;
  4320  0758  303F               	movlw	63
  4321  0759  0024               	movlb	4	; select bank4
  4322  075A  008C               	movwf	12	;volatile
  4323                           
  4324                           ;pin_manager.c: 55: WPUC = 0x3F;
  4325  075B  303F               	movlw	63
  4326  075C  008E               	movwf	14	;volatile
  4327                           
  4328                           ;pin_manager.c: 56: ANSELA = 0x17;
  4329  075D  3017               	movlw	23
  4330  075E  0023               	movlb	3	; select bank3
  4331  075F  008C               	movwf	12	;volatile
  4332                           
  4333                           ;pin_manager.c: 57: ANSELC = 0x1;
  4334  0760  3001               	movlw	1
  4335  0761  008E               	movwf	14	;volatile
  4336                           
  4337                           ;pin_manager.c: 58: TRISC = 0xF;
  4338  0762  300F               	movlw	15
  4339  0763  0021               	movlb	1	; select bank1
  4340  0764  008E               	movwf	14	;volatile
  4341                           
  4342                           ;pin_manager.c: 59: TRISA = 0x36;
  4343  0765  3036               	movlw	54
  4344  0766  008C               	movwf	12	;volatile
  4345                           
  4346                           ;pin_manager.c: 61: OPTION_REGbits.nWPUEN = 0x1;
  4347  0767  1795               	bsf	21,7	;volatile
  4348                           
  4349                           ;pin_manager.c: 64: bool state = GIE;
  4350  0768  3000               	movlw	0
  4351  0769  1B8B               	btfsc	11,7	;volatile
  4352  076A  3001               	movlw	1
  4353  076B  00F0               	movwf	PIN_MANAGER_Initialize@state
  4354                           
  4355                           ;pin_manager.c: 65: GIE = 0;
  4356  076C  138B               	bcf	11,7	;volatile
  4357                           
  4358                           ;pin_manager.c: 66: PPSLOCK = 0x55;
  4359  076D  3055               	movlw	85
  4360  076E  003C               	movlb	28	; select bank28
  4361  076F  008F               	movwf	15	;volatile
  4362                           
  4363                           ;pin_manager.c: 67: PPSLOCK = 0xAA;
  4364  0770  30AA               	movlw	170
  4365  0771  008F               	movwf	15	;volatile
  4366                           
  4367                           ;pin_manager.c: 68: PPSLOCKbits.PPSLOCKED = 0x00;
  4368  0772  100F               	bcf	15,0	;volatile
  4369                           
  4370                           ;pin_manager.c: 70: SSPSSPPS = 0x13;
  4371  0773  3013               	movlw	19
  4372  0774  00A2               	movwf	34	;volatile
  4373                           
  4374                           ;pin_manager.c: 71: T2PPS = 0x05;
  4375  0775  3005               	movlw	5
  4376  0776  0098               	movwf	24	;volatile
  4377                           
  4378                           ;pin_manager.c: 72: SSPDATPPS = 0x12;
  4379  0777  3012               	movlw	18
  4380  0778  00A1               	movwf	33	;volatile
  4381                           
  4382                           ;pin_manager.c: 73: RC4PPS = 0x0F;
  4383  0779  300F               	movlw	15
  4384  077A  003D               	movlb	29	; select bank29
  4385  077B  00A4               	movwf	36	;volatile
  4386                           
  4387                           ;pin_manager.c: 74: RC5PPS = 0x0E;
  4388  077C  300E               	movlw	14
  4389  077D  00A5               	movwf	37	;volatile
  4390                           
  4391                           ;pin_manager.c: 75: SSPCLKPPS = 0x11;
  4392  077E  3011               	movlw	17
  4393  077F  003C               	movlb	28	; select bank28
  4394  0780  00A0               	movwf	32	;volatile
  4395                           
  4396                           ;pin_manager.c: 76: RA0PPS = 0x03;
  4397  0781  3003               	movlw	3
  4398  0782  003D               	movlb	29	; select bank29
  4399  0783  0090               	movwf	16	;volatile
  4400                           
  4401                           ;pin_manager.c: 78: PPSLOCK = 0x55;
  4402  0784  3055               	movlw	85
  4403  0785  003C               	movlb	28	; select bank28
  4404  0786  008F               	movwf	15	;volatile
  4405                           
  4406                           ;pin_manager.c: 79: PPSLOCK = 0xAA;
  4407  0787  30AA               	movlw	170
  4408  0788  008F               	movwf	15	;volatile
  4409                           
  4410                           ;pin_manager.c: 80: PPSLOCKbits.PPSLOCKED = 0x01;
  4411  0789  140F               	bsf	15,0	;volatile
  4412                           
  4413                           ;pin_manager.c: 82: GIE = state;
  4414  078A  1C70               	btfss	PIN_MANAGER_Initialize@state,0
  4415  078B  2F8E               	goto	u10
  4416  078C  178B               	bsf	11,7	;volatile
  4417  078D  0008               	return
  4418  078E                     u10:	
  4419  078E  138B               	bcf	11,7	;volatile
  4420  078F  0008               	return
  4421  0790                     __end_of_PIN_MANAGER_Initialize:	
  4422                           
  4423                           	psect	text9
  4424  06D7                     __ptext9:	
  4425 ;; *************** function _OSCILLATOR_Initialize *****************
  4426 ;; Defined at:
  4427 ;;		line 86 in file "mcc_generated_files/mcc.c"
  4428 ;; Parameters:    Size  Location     Type
  4429 ;;		None
  4430 ;; Auto vars:     Size  Location     Type
  4431 ;;		None
  4432 ;; Return value:  Size  Location     Type
  4433 ;;                  1    wreg      void 
  4434 ;; Registers used:
  4435 ;;		wreg, status,2
  4436 ;; Tracked objects:
  4437 ;;		On entry : 0/0
  4438 ;;		On exit  : 0/0
  4439 ;;		Unchanged: 0/0
  4440 ;; Data sizes:     COMMON   BANK0   BANK1   BANK2   BANK3   BANK4   BANK5   BANK6
  4441 ;;      Params:         0       0       0       0       0       0       0       0
  4442 ;;      Locals:         0       0       0       0       0       0       0       0
  4443 ;;      Temps:          0       0       0       0       0       0       0       0
  4444 ;;      Totals:         0       0       0       0       0       0       0       0
  4445 ;;Total ram usage:        0 bytes
  4446 ;; Hardware stack levels used:    1
  4447 ;; This function calls:
  4448 ;;		Nothing
  4449 ;; This function is called by:
  4450 ;;		_SYSTEM_Initialize
  4451 ;; This function uses a non-reentrant model
  4452 ;;
  4453                           
  4454                           
  4455                           ;psect for function _OSCILLATOR_Initialize
  4456  06D7                     _OSCILLATOR_Initialize:	
  4457                           
  4458                           ;mcc.c: 89: OSCCON = 0x78;
  4459                           
  4460                           ;incstack = 0
  4461                           ; Regs used in _OSCILLATOR_Initialize: [wreg+status,2]
  4462  06D7  3078               	movlw	120
  4463  06D8  0021               	movlb	1	; select bank1
  4464  06D9  0099               	movwf	25	;volatile
  4465                           
  4466                           ;mcc.c: 91: OSCTUNE = 0x00;
  4467  06DA  0198               	clrf	24	;volatile
  4468  06DB  0008               	return
  4469  06DC                     __end_of_OSCILLATOR_Initialize:	
  4470                           
  4471                           	psect	text10
  4472  06F8                     __ptext10:	
  4473 ;; *************** function _SPI_Exchange8bit *****************
  4474 ;; Defined at:
  4475 ;;		line 80 in file "mcc_generated_files/spi.c"
  4476 ;; Parameters:    Size  Location     Type
  4477 ;;  data            1    wreg     unsigned char 
  4478 ;; Auto vars:     Size  Location     Type
  4479 ;;  data            1    2[COMMON] unsigned char 
  4480 ;;  dummyRead       1    1[COMMON] unsigned char 
  4481 ;; Return value:  Size  Location     Type
  4482 ;;                  1    wreg      unsigned char 
  4483 ;; Registers used:
  4484 ;;		wreg
  4485 ;; Tracked objects:
  4486 ;;		On entry : 0/0
  4487 ;;		On exit  : 0/0
  4488 ;;		Unchanged: 0/0
  4489 ;; Data sizes:     COMMON   BANK0   BANK1   BANK2   BANK3   BANK4   BANK5   BANK6
  4490 ;;      Params:         0       0       0       0       0       0       0       0
  4491 ;;      Locals:         2       0       0       0       0       0       0       0
  4492 ;;      Temps:          1       0       0       0       0       0       0       0
  4493 ;;      Totals:         3       0       0       0       0       0       0       0
  4494 ;;Total ram usage:        3 bytes
  4495 ;; Hardware stack levels used:    1
  4496 ;; This function calls:
  4497 ;;		Nothing
  4498 ;; This function is called by:
  4499 ;;		_main
  4500 ;;		_SPI_Exchange8bitBuffer
  4501 ;; This function uses a non-reentrant model
  4502 ;;
  4503                           
  4504                           
  4505                           ;psect for function _SPI_Exchange8bit
  4506  06F8                     _SPI_Exchange8bit:	
  4507                           
  4508                           ;incstack = 0
  4509                           ; Regs used in _SPI_Exchange8bit: [wreg]
  4510                           ;SPI_Exchange8bit@data stored from wreg
  4511  06F8  00F2               	movwf	SPI_Exchange8bit@data
  4512                           
  4513                           ;spi.c: 82: uint8_t dummyRead = SSPBUF;
  4514  06F9  0024               	movlb	4	; select bank4
  4515  06FA  0811               	movf	17,w	;volatile
  4516  06FB  00F0               	movwf	??_SPI_Exchange8bit
  4517  06FC  0870               	movf	??_SPI_Exchange8bit,w
  4518  06FD  00F1               	movwf	SPI_Exchange8bit@dummyRead
  4519                           
  4520                           ;spi.c: 85: SSP1CON1bits.WCOL = 0;
  4521  06FE  1395               	bcf	21,7	;volatile
  4522                           
  4523                           ;spi.c: 87: SSPBUF = data;
  4524  06FF  0872               	movf	SPI_Exchange8bit@data,w
  4525  0700  0091               	movwf	17	;volatile
  4526  0701                     l195:	
  4527                           ;spi.c: 90: {
  4528                           
  4529                           ;spi.c: 89: while(SSP1STATbits.BF == 0x0)
  4530                           
  4531  0701  1C14               	btfss	20,0	;volatile
  4532  0702  2F01               	goto	l195
  4533                           
  4534                           ;spi.c: 91: }
  4535                           ;spi.c: 93: return (SSPBUF);
  4536  0703  0811               	movf	17,w	;volatile
  4537  0704  0008               	return
  4538  0705                     __end_of_SPI_Exchange8bit:	
  4539                           
  4540                           	psect	text11
  4541  073F                     __ptext11:	
  4542 ;; *************** function _PWM4_LoadDutyValue *****************
  4543 ;; Defined at:
  4544 ;;		line 74 in file "mcc_generated_files/pwm4.c"
  4545 ;; Parameters:    Size  Location     Type
  4546 ;;  dutyValue       2    0[COMMON] unsigned int 
  4547 ;; Auto vars:     Size  Location     Type
  4548 ;;		None
  4549 ;; Return value:  Size  Location     Type
  4550 ;;                  1    wreg      void 
  4551 ;; Registers used:
  4552 ;;		wreg, status,2, status,0
  4553 ;; Tracked objects:
  4554 ;;		On entry : 0/0
  4555 ;;		On exit  : 0/0
  4556 ;;		Unchanged: 0/0
  4557 ;; Data sizes:     COMMON   BANK0   BANK1   BANK2   BANK3   BANK4   BANK5   BANK6
  4558 ;;      Params:         2       0       0       0       0       0       0       0
  4559 ;;      Locals:         0       0       0       0       0       0       0       0
  4560 ;;      Temps:          2       0       0       0       0       0       0       0
  4561 ;;      Totals:         4       0       0       0       0       0       0       0
  4562 ;;Total ram usage:        4 bytes
  4563 ;; Hardware stack levels used:    1
  4564 ;; This function calls:
  4565 ;;		Nothing
  4566 ;; This function is called by:
  4567 ;;		_main
  4568 ;; This function uses a non-reentrant model
  4569 ;;
  4570                           
  4571                           
  4572                           ;psect for function _PWM4_LoadDutyValue
  4573  073F                     _PWM4_LoadDutyValue:	
  4574                           
  4575                           ;pwm4.c: 77: PWM4DCH = (dutyValue & 0x03FC)>>2;
  4576                           
  4577                           ;incstack = 0
  4578                           ; Regs used in _PWM4_LoadDutyValue: [wreg+status,2+status,0]
  4579  073F  0871               	movf	PWM4_LoadDutyValue@dutyValue+1,w
  4580  0740  00F3               	movwf	??_PWM4_LoadDutyValue+1
  4581  0741  0870               	movf	PWM4_LoadDutyValue@dutyValue,w
  4582  0742  00F2               	movwf	??_PWM4_LoadDutyValue
  4583  0743  36F3               	lsrf	??_PWM4_LoadDutyValue+1,f
  4584  0744  0CF2               	rrf	??_PWM4_LoadDutyValue,f
  4585  0745  36F3               	lsrf	??_PWM4_LoadDutyValue+1,f
  4586  0746  0CF2               	rrf	??_PWM4_LoadDutyValue,f
  4587  0747  0872               	movf	??_PWM4_LoadDutyValue,w
  4588  0748  002C               	movlb	12	; select bank12
  4589  0749  009B               	movwf	27	;volatile
  4590                           
  4591                           ;pwm4.c: 80: PWM4DCL = (dutyValue & 0x0003)<<6;
  4592  074A  0870               	movf	PWM4_LoadDutyValue@dutyValue,w
  4593  074B  3903               	andlw	3
  4594  074C  00F2               	movwf	??_PWM4_LoadDutyValue
  4595  074D  3005               	movlw	5
  4596  074E                     u165:	
  4597  074E  35F2               	lslf	??_PWM4_LoadDutyValue,f
  4598  074F  3EFF               	addlw	-1
  4599  0750  1D03               	skipz
  4600  0751  2F4E               	goto	u165
  4601  0752  3572               	lslf	??_PWM4_LoadDutyValue,w
  4602  0753  009A               	movwf	26	;volatile
  4603  0754  0008               	return
  4604  0755                     __end_of_PWM4_LoadDutyValue:	
  4605                           
  4606                           	psect	text12
  4607  0729                     __ptext12:	
  4608 ;; *************** function _PWM3_LoadDutyValue *****************
  4609 ;; Defined at:
  4610 ;;		line 74 in file "mcc_generated_files/pwm3.c"
  4611 ;; Parameters:    Size  Location     Type
  4612 ;;  dutyValue       2    0[COMMON] unsigned int 
  4613 ;; Auto vars:     Size  Location     Type
  4614 ;;		None
  4615 ;; Return value:  Size  Location     Type
  4616 ;;                  1    wreg      void 
  4617 ;; Registers used:
  4618 ;;		wreg, status,2, status,0
  4619 ;; Tracked objects:
  4620 ;;		On entry : 0/0
  4621 ;;		On exit  : 0/0
  4622 ;;		Unchanged: 0/0
  4623 ;; Data sizes:     COMMON   BANK0   BANK1   BANK2   BANK3   BANK4   BANK5   BANK6
  4624 ;;      Params:         2       0       0       0       0       0       0       0
  4625 ;;      Locals:         0       0       0       0       0       0       0       0
  4626 ;;      Temps:          2       0       0       0       0       0       0       0
  4627 ;;      Totals:         4       0       0       0       0       0       0       0
  4628 ;;Total ram usage:        4 bytes
  4629 ;; Hardware stack levels used:    1
  4630 ;; This function calls:
  4631 ;;		Nothing
  4632 ;; This function is called by:
  4633 ;;		_main
  4634 ;; This function uses a non-reentrant model
  4635 ;;
  4636                           
  4637                           
  4638                           ;psect for function _PWM3_LoadDutyValue
  4639  0729                     _PWM3_LoadDutyValue:	
  4640                           
  4641                           ;pwm3.c: 77: PWM3DCH = (dutyValue & 0x03FC)>>2;
  4642                           
  4643                           ;incstack = 0
  4644                           ; Regs used in _PWM3_LoadDutyValue: [wreg+status,2+status,0]
  4645  0729  0871               	movf	PWM3_LoadDutyValue@dutyValue+1,w
  4646  072A  00F3               	movwf	??_PWM3_LoadDutyValue+1
  4647  072B  0870               	movf	PWM3_LoadDutyValue@dutyValue,w
  4648  072C  00F2               	movwf	??_PWM3_LoadDutyValue
  4649  072D  36F3               	lsrf	??_PWM3_LoadDutyValue+1,f
  4650  072E  0CF2               	rrf	??_PWM3_LoadDutyValue,f
  4651  072F  36F3               	lsrf	??_PWM3_LoadDutyValue+1,f
  4652  0730  0CF2               	rrf	??_PWM3_LoadDutyValue,f
  4653  0731  0872               	movf	??_PWM3_LoadDutyValue,w
  4654  0732  002C               	movlb	12	; select bank12
  4655  0733  0098               	movwf	24	;volatile
  4656                           
  4657                           ;pwm3.c: 80: PWM3DCL = (dutyValue & 0x0003)<<6;
  4658  0734  0870               	movf	PWM3_LoadDutyValue@dutyValue,w
  4659  0735  3903               	andlw	3
  4660  0736  00F2               	movwf	??_PWM3_LoadDutyValue
  4661  0737  3005               	movlw	5
  4662  0738                     u155:	
  4663  0738  35F2               	lslf	??_PWM3_LoadDutyValue,f
  4664  0739  3EFF               	addlw	-1
  4665  073A  1D03               	skipz
  4666  073B  2F38               	goto	u155
  4667  073C  3572               	lslf	??_PWM3_LoadDutyValue,w
  4668  073D  0097               	movwf	23	;volatile
  4669  073E  0008               	return
  4670  073F                     __end_of_PWM3_LoadDutyValue:	
  4671  007E                     btemp	set	126	;btemp
  4672  007E                     wtemp	set	126
  4673  007E                     wtemp0	set	126
  4674  0080                     wtemp1	set	128
  4675  0082                     wtemp2	set	130
  4676  0084                     wtemp3	set	132
  4677  0086                     wtemp4	set	134
  4678  0088                     wtemp5	set	136
  4679  007F                     wtemp6	set	127
  4680  007E                     ttemp	set	126
  4681  007E                     ttemp0	set	126
  4682  0081                     ttemp1	set	129
  4683  0084                     ttemp2	set	132
  4684  0087                     ttemp3	set	135
  4685  007F                     ttemp4	set	127
  4686  007E                     ltemp	set	126
  4687  007E                     ltemp0	set	126
  4688  0082                     ltemp1	set	130
  4689  0086                     ltemp2	set	134
  4690  0080                     ltemp3	set	128


Data Sizes:
    Strings     0
    Constant    256
    Data        0
    BSS         0
    Persistent  0
    Stack       0

Auto Spaces:
    Space          Size  Autos    Used
    COMMON           14     11      11
    BANK0            80      0       0
    BANK1            80      0       0
    BANK2            80      0       0
    BANK3            80      0       0
    BANK4            80      0       0
    BANK5            80      0       0
    BANK6            16      0       0

Pointer List with Targets:

    None.

Critical Paths under _main in COMMON

    _main->_PWM3_LoadDutyValue
    _main->_PWM4_LoadDutyValue
    _SYSTEM_Initialize->_PIN_MANAGER_Initialize

Critical Paths under _main in BANK0

    None.

Critical Paths under _main in BANK1

    None.

Critical Paths under _main in BANK2

    None.

Critical Paths under _main in BANK3

    None.

Critical Paths under _main in BANK4

    None.

Critical Paths under _main in BANK5

    None.

Critical Paths under _main in BANK6

    None.

Call Graph Tables:

 ---------------------------------------------------------------------------------
 (Depth) Function   	        Calls       Base Space   Used Autos Params    Refs
 ---------------------------------------------------------------------------------
 (0) _main                                                 7     7      0     519
                                              4 COMMON     7     7      0
                 _PWM3_LoadDutyValue
                 _PWM4_LoadDutyValue
                   _SPI_Exchange8bit
                  _SYSTEM_Initialize
 ---------------------------------------------------------------------------------
 (1) _SYSTEM_Initialize                                    0     0      0      15
              _OSCILLATOR_Initialize
             _PIN_MANAGER_Initialize
                    _PWM3_Initialize
                    _PWM4_Initialize
                     _SPI_Initialize
                    _TMR2_Initialize
                     _ZCD_Initialize
 ---------------------------------------------------------------------------------
 (2) _ZCD_Initialize                                       0     0      0       0
 ---------------------------------------------------------------------------------
 (2) _TMR2_Initialize                                      0     0      0       0
                         _TMR2_Start
 ---------------------------------------------------------------------------------
 (3) _TMR2_Start                                           0     0      0       0
 ---------------------------------------------------------------------------------
 (2) _SPI_Initialize                                       0     0      0       0
 ---------------------------------------------------------------------------------
 (2) _PWM4_Initialize                                      0     0      0       0
 ---------------------------------------------------------------------------------
 (2) _PWM3_Initialize                                      0     0      0       0
 ---------------------------------------------------------------------------------
 (2) _PIN_MANAGER_Initialize                               1     1      0      15
                                              0 COMMON     1     1      0
 ---------------------------------------------------------------------------------
 (2) _OSCILLATOR_Initialize                                0     0      0       0
 ---------------------------------------------------------------------------------
 (1) _SPI_Exchange8bit                                     3     3      0      15
                                              0 COMMON     3     3      0
 ---------------------------------------------------------------------------------
 (1) _PWM4_LoadDutyValue                                   4     2      2     130
                                              0 COMMON     4     2      2
 ---------------------------------------------------------------------------------
 (1) _PWM3_LoadDutyValue                                   4     2      2     130
                                              0 COMMON     4     2      2
 ---------------------------------------------------------------------------------
 Estimated maximum stack depth 3
 ---------------------------------------------------------------------------------

 Call Graph Graphs:

 _main (ROOT)
   _PWM3_LoadDutyValue
   _PWM4_LoadDutyValue
   _SPI_Exchange8bit
   _SYSTEM_Initialize
     _OSCILLATOR_Initialize
     _PIN_MANAGER_Initialize
     _PWM3_Initialize
     _PWM4_Initialize
     _SPI_Initialize
     _TMR2_Initialize
       _TMR2_Start
     _ZCD_Initialize

 Address spaces:
Name               Size   Autos  Total    Cost      Usage
BIGRAM             1F0      0       0       0        0.0%
NULL                 0      0       0       0        0.0%
CODE                 0      0       0       0        0.0%
BITCOMMON            E      0       0       1        0.0%
BITSFR0              0      0       0       1        0.0%
SFR0                 0      0       0       1        0.0%
COMMON               E      B       B       2       78.6%
BITSFR1              0      0       0       2        0.0%
SFR1                 0      0       0       2        0.0%
BITSFR2              0      0       0       3        0.0%
SFR2                 0      0       0       3        0.0%
STACK                0      0       0       3        0.0%
BITSFR3              0      0       0       4        0.0%
SFR3                 0      0       0       4        0.0%
ABS                  0      0       0       4        0.0%
BITBANK0            50      0       0       5        0.0%
BITSFR4              0      0       0       5        0.0%
SFR4                 0      0       0       5        0.0%
BANK0               50      0       0       6        0.0%
BITSFR5              0      0       0       6        0.0%
SFR5                 0      0       0       6        0.0%
BITBANK1            50      0       0       7        0.0%
BITSFR6              0      0       0       7        0.0%
SFR6                 0      0       0       7        0.0%
BANK1               50      0       0       8        0.0%
BITSFR7              0      0       0       8        0.0%
SFR7                 0      0       0       8        0.0%
BITBANK2            50      0       0       9        0.0%
BITSFR8              0      0       0       9        0.0%
SFR8                 0      0       0       9        0.0%
BANK2               50      0       0      10        0.0%
BITSFR9              0      0       0      10        0.0%
SFR9                 0      0       0      10        0.0%
BITBANK3            50      0       0      11        0.0%
BITSFR10             0      0       0      11        0.0%
SFR10                0      0       0      11        0.0%
BANK3               50      0       0      12        0.0%
BITSFR11             0      0       0      12        0.0%
SFR11                0      0       0      12        0.0%
BITBANK4            50      0       0      13        0.0%
BITSFR12             0      0       0      13        0.0%
SFR12                0      0       0      13        0.0%
BANK4               50      0       0      14        0.0%
BITSFR13             0      0       0      14        0.0%
SFR13                0      0       0      14        0.0%
BITBANK5            50      0       0      15        0.0%
BITSFR14             0      0       0      15        0.0%
SFR14                0      0       0      15        0.0%
BANK5               50      0       0      16        0.0%
BITSFR15             0      0       0      16        0.0%
SFR15                0      0       0      16        0.0%
BITBANK6            10      0       0      17        0.0%
BITSFR16             0      0       0      17        0.0%
SFR16                0      0       0      17        0.0%
BANK6               10      0       0      18        0.0%
BITSFR17             0      0       0      18        0.0%
SFR17                0      0       0      18        0.0%
BITSFR18             0      0       0      19        0.0%
SFR18                0      0       0      19        0.0%
DATA                 0      0       0      19        0.0%
BITSFR19             0      0       0      20        0.0%
SFR19                0      0       0      20        0.0%
BITSFR20             0      0       0      21        0.0%
SFR20                0      0       0      21        0.0%
BITSFR21             0      0       0      22        0.0%
SFR21                0      0       0      22        0.0%
BITSFR22             0      0       0      23        0.0%
SFR22                0      0       0      23        0.0%
BITSFR23             0      0       0      24        0.0%
SFR23                0      0       0      24        0.0%
BITSFR24             0      0       0      25        0.0%
SFR24                0      0       0      25        0.0%
BITSFR25             0      0       0      26        0.0%
SFR25                0      0       0      26        0.0%
BITSFR26             0      0       0      27        0.0%
SFR26                0      0       0      27        0.0%
BITSFR27             0      0       0      28        0.0%
SFR27                0      0       0      28        0.0%
BITSFR28             0      0       0      29        0.0%
SFR28                0      0       0      29        0.0%
BITSFR29             0      0       0      30        0.0%
SFR29                0      0       0      30        0.0%
BITSFR30             0      0       0      31        0.0%
SFR30                0      0       0      31        0.0%
BITSFR31             0      0       0      32        0.0%
SFR31                0      0       0      32        0.0%


Microchip Technology PIC Macro Assembler V1.36 build -262312587 
Symbol Table                                                                                   Thu Jun 23 11:30:08 2016

                 _SPI_Initialize 06DC                      __CFG_CP$OFF 0000                               u10 078E  
                    __CFG_LVP$ON 0000                              l195 0701                              l855 07BE  
                            l849 07D3                              _GIE 005F                              u155 0738  
                            u165 074E                              _PR2 001B                              _cie 0800  
                ?_ZCD_Initialize 0070                  _TMR2_Initialize 0705                  _PWM4_Initialize 06E4  
                   __CFG_BORV$LO 0000                     __CFG_ZCD$OFF 0000                             _LATA 010C  
                           _LATC 010E                             _T2PR 001B                             _TMR2 001A  
                           _WPUA 020C                             _WPUC 020E                     __CFG_WRT$OFF 0000  
                           _main 0790                             fsr0h 0005                             fsr0l 0004  
                           indf0 0000                             btemp 007E                    __CFG_BOREN$ON 0000  
                           ltemp 007E                             start 0002                             ttemp 007E  
                           wtemp 007E           __end_of_SPI_Initialize 06E4                    __CFG_MCLRE$ON 0000  
                  __CFG_PLLEN$ON 0000   __size_of_OSCILLATOR_Initialize 0005    __end_of_OSCILLATOR_Initialize 06DC  
                          ?_main 0070                    __CFG_WDTE$OFF 0000                            _HIDC4 2074  
                          _HIDC5 2075                            _T2CON 001C                            _T2HLT 001D  
                          _T2PPS 0E18                            _T2TMR 001A                            _T2RST 001F  
             _PWM4_LoadDutyValue 073F                            _TRISA 008C                            _TRISC 008E  
                    ?_TMR2_Start 0070              ?_PWM4_LoadDutyValue 0070          __end_of_PWM3_Initialize 06F8  
                          ltemp0 007E                            ltemp1 0082                            ltemp2 0086  
                          ltemp3 0080                            ttemp0 007E                            ttemp1 0081  
                          ttemp2 0084                            ttemp3 0087                            ttemp4 007F  
                          status 0003                            wtemp0 007E                            wtemp1 0080  
                          wtemp2 0082                            wtemp3 0084                            wtemp4 0086  
                          wtemp5 0088                            wtemp6 007F                  ?_SPI_Initialize 0070  
                __initialization 07FD                     __end_of_main 07FD             ??_PWM4_LoadDutyValue 0072  
        __end_of_PWM4_Initialize 06ED          __end_of_TMR2_Initialize 0714                   __CFG_LPBOR$OFF 0000  
                         ??_main 0074         __end_of_SPI_Exchange8bit 0705                           _ANSELA 018C  
                         _ANSELC 018E                           _RA0PPS 0E90                           _RC4PPS 0EA4  
                         _RC5PPS 0EA5                           _OSCCON 0099                    main@readDummy 0076  
                         _SSPBUF 0211                   __CFG_PWRTE$OFF 0000      __size_of_PWM3_LoadDutyValue 0016  
                 __CFG_STVREN$ON 0000              __size_of_TMR2_Start 0003                 ?_PWM3_Initialize 0070  
              _SYSTEM_Initialize 0714          __end_of__initialization 07FD               ?_SYSTEM_Initialize 0070  
                 __pcstackCOMMON 0070              ??_SYSTEM_Initialize 0071                 ??_ZCD_Initialize 0070  
               ?_TMR2_Initialize 0070                 ?_PWM4_Initialize 0070      PWM4_LoadDutyValue@dutyValue 0070  
                 _OPTION_REGbits 0095        __end_of_SYSTEM_Initialize 0729                       __pmaintext 0790  
                __CFG_PPS1WAY$ON 0000                  __CFG_WDTCCS$SWC 0000                          _ZCD1CON 011C  
                        _OSCTUNE 0098                          _PWM3DCH 0618                          _PWM3DCL 0617  
                        _PWM4DCH 061B                          _PWM4DCL 061A                          _PWM3CON 0619  
                        _PWM4CON 061C                          _SLRCONC 030E                          _PPSLOCK 0E0F  
                   ??_TMR2_Start 0070                 ??_SPI_Initialize 0070               __end_of_TMR2_Start 06D3  
                        __ptext1 0714                          __ptext2 06D3                          __ptext3 0705  
                        __ptext4 06D0                          __ptext5 06DC                          __ptext6 06E4  
                        __ptext7 06ED                          __ptext8 0755                          __ptext9 06D7  
          _OSCILLATOR_Initialize 06D7                        _T2CONbits 001C         ??_PIN_MANAGER_Initialize 0070  
                      _T2HLTbits 001D                ?_SPI_Exchange8bit 0070       __size_of_SYSTEM_Initialize 0015  
           end_of_initialization 07FD                        _T2RSTbits 001F               ??_SPI_Exchange8bit 0070  
           SPI_Exchange8bit@data 0072      __size_of_PWM4_LoadDutyValue 0016                     __pstringtext 0800  
                      _SSPDATPPS 0E21                        _SSPCLKPPS 0E20                 __CFG_FOSC$INTOSC 0000  
     __end_of_PWM3_LoadDutyValue 073F           ?_OSCILLATOR_Initialize 0070              start_initialization 07FD  
__size_of_PIN_MANAGER_Initialize 003B                      __end_of_cie 0900         __size_of_PWM3_Initialize 000B  
                    _CCPTMRSbits 029E                        ___latbits 0001         __size_of_PWM4_Initialize 0009  
       __size_of_TMR2_Initialize 000F           _PIN_MANAGER_Initialize 0755          __size_of_ZCD_Initialize 0004  
                       _T2CLKCON 001E                         _PIR1bits 0010        __size_of_SPI_Exchange8bit 000D  
           __CFG_WDTCPS$WDTCPS1F 0000                         _SSP1CON1 0215                         _SSP1CON3 0217  
                       _SSP1STAT 0214                ??_PWM3_Initialize 0070                         _SSPSSPPS 0E22  
              ??_TMR2_Initialize 0070                ??_PWM4_Initialize 0070       __end_of_PWM4_LoadDutyValue 0755  
        __size_of_SPI_Initialize 0008          ??_OSCILLATOR_Initialize 0070               _PWM3_LoadDutyValue 0729  
                       __ptext10 06F8                         __ptext11 073F                         __ptext12 0729  
            ?_PWM3_LoadDutyValue 0070                     _SSP1CON1bits 0215                    __size_of_main 006D  
                    _ZCD1CONbits 011C             __CFG_WDTCWS$WDTCWSSW 0000             ??_PWM3_LoadDutyValue 0072  
                       main@addr 0077                         main@data 0078                     _SSP1STATbits 0214  
                       main@pwm3 0079                         main@pwm4 007A      PIN_MANAGER_Initialize@state 0070  
                 _ZCD_Initialize 06D3        SPI_Exchange8bit@dummyRead 0071          ?_PIN_MANAGER_Initialize 0070  
              __CFG_CLKOUTEN$OFF 0000                      _PPSLOCKbits 0E0F                 _SPI_Exchange8bit 06F8  
    PWM3_LoadDutyValue@dutyValue 0070           __end_of_ZCD_Initialize 06D7                       _TMR2_Start 06D0  
 __end_of_PIN_MANAGER_Initialize 0790                  _PWM3_Initialize 06ED  
